
.pio/build/uno_usbasp_dev/firmware.elf:     file format elf32-avr


Disassembly of section .text:

00000000 <__vectors>:
       0:	84 c0       	rjmp	.+264    	; 0x10a <__ctors_end>
       2:	00 00       	nop
       4:	0c 94 c4 14 	jmp	0x2988	; 0x2988 <__vector_1>
       8:	0c 94 ce 14 	jmp	0x299c	; 0x299c <__vector_2>
       c:	a6 c0       	rjmp	.+332    	; 0x15a <__bad_interrupt>
       e:	00 00       	nop
      10:	a4 c0       	rjmp	.+328    	; 0x15a <__bad_interrupt>
      12:	00 00       	nop
      14:	a2 c0       	rjmp	.+324    	; 0x15a <__bad_interrupt>
      16:	00 00       	nop
      18:	a0 c0       	rjmp	.+320    	; 0x15a <__bad_interrupt>
      1a:	00 00       	nop
      1c:	0c 94 d8 14 	jmp	0x29b0	; 0x29b0 <__vector_7>
      20:	9c c0       	rjmp	.+312    	; 0x15a <__bad_interrupt>
      22:	00 00       	nop
      24:	9a c0       	rjmp	.+308    	; 0x15a <__bad_interrupt>
      26:	00 00       	nop
      28:	98 c0       	rjmp	.+304    	; 0x15a <__bad_interrupt>
      2a:	00 00       	nop
      2c:	96 c0       	rjmp	.+300    	; 0x15a <__bad_interrupt>
      2e:	00 00       	nop
      30:	94 c0       	rjmp	.+296    	; 0x15a <__bad_interrupt>
      32:	00 00       	nop
      34:	92 c0       	rjmp	.+292    	; 0x15a <__bad_interrupt>
      36:	00 00       	nop
      38:	90 c0       	rjmp	.+288    	; 0x15a <__bad_interrupt>
      3a:	00 00       	nop
      3c:	8e c0       	rjmp	.+284    	; 0x15a <__bad_interrupt>
      3e:	00 00       	nop
      40:	8c c0       	rjmp	.+280    	; 0x15a <__bad_interrupt>
      42:	00 00       	nop
      44:	8a c0       	rjmp	.+276    	; 0x15a <__bad_interrupt>
      46:	00 00       	nop
      48:	88 c0       	rjmp	.+272    	; 0x15a <__bad_interrupt>
      4a:	00 00       	nop
      4c:	86 c0       	rjmp	.+268    	; 0x15a <__bad_interrupt>
      4e:	00 00       	nop
      50:	84 c0       	rjmp	.+264    	; 0x15a <__bad_interrupt>
      52:	00 00       	nop
      54:	82 c0       	rjmp	.+260    	; 0x15a <__bad_interrupt>
      56:	00 00       	nop
      58:	80 c0       	rjmp	.+256    	; 0x15a <__bad_interrupt>
      5a:	00 00       	nop
      5c:	7e c0       	rjmp	.+252    	; 0x15a <__bad_interrupt>
      5e:	00 00       	nop
      60:	0c 94 30 14 	jmp	0x2860	; 0x2860 <__vector_24>
      64:	7a c0       	rjmp	.+244    	; 0x15a <__bad_interrupt>
	...

00000068 <__trampolines_end>:
      68:	00 01       	movw	r0, r0
      6a:	02 03       	mulsu	r16, r18

0000006c <_ZN6ConfigL24TIME_HOUR_FORMAT_OPTIONSE>:
      6c:	02 04                                               ..

0000006e <_ZL13DAYS_IN_MONTH>:
      6e:	1f 1f 1c 1f 1e 1f 1e 1f 1f 1e 1f 1e 1f              .............

0000007b <_ZN5ViewsL5VIEWSE>:
      7b:	f0 11 7a 11                                         ..z.

0000007f <_ZL14SEGMENT_SYMBOL>:
      7f:	7b 60 57 76 6c 3e 3f 70 7f 7e 5c 04 1b ff           {`Wvl>?p.~\...

0000008d <_ZZN7Modules17initializeModulesEvE3__c_0>:
      8d:	52 54 43 20 6d 6f 64 75 6c 20 69 6e 69 63 69 61     RTC modul inicia
      9d:	6c 69 7a 6f 76 61 6e c3 bd 2e 00                    lizovan....

000000a8 <_ZZN7Modules17initializeModulesEvE3__c_1>:
      a8:	5b 56 61 72 6f 76 61 6e 69 65 5d 20 52 54 43 20     [Varovanie] RTC 
      b8:	6d 6f 64 75 6c 20 6e 65 62 6f 6c 20 6e c3 a1 6a     modul nebol n..j
      c8:	64 65 6e c3 bd 21 00                                den..!.

000000cf <_ZZN7Modules17initializeModulesEvE3__c>:
      cf:	49 6e 69 63 69 61 6c 69 7a c3 a1 63 69 61 20 49     Inicializ..cia I
      df:	32 43 20 7a 62 65 72 6e 69 63 65 2e 2e 2e 00        2C zbernice....

000000ee <_ZZN7ModulesL21_onModuleStateChangedEhbE3__c_1>:
      ee:	6f 64 70 6f 6a 65 6e c3 bd 2e 00                    odpojen....

000000f9 <_ZZN7ModulesL21_onModuleStateChangedEhbE3__c_0>:
      f9:	70 72 69 70 6f 6a 65 6e c3 bd 2e 00                 pripojen....

00000105 <_ZZN7ModulesL21_onModuleStateChangedEhbE3__c>:
     105:	20 00 00                                             ..

00000108 <__ctors_start>:
     108:	94 20       	and	r9, r4

0000010a <__ctors_end>:
     10a:	11 24       	eor	r1, r1
     10c:	1f be       	out	0x3f, r1	; 63
     10e:	cf ef       	ldi	r28, 0xFF	; 255
     110:	d8 e0       	ldi	r29, 0x08	; 8
     112:	de bf       	out	0x3e, r29	; 62
     114:	cd bf       	out	0x3d, r28	; 61

00000116 <__do_copy_data>:
     116:	13 e0       	ldi	r17, 0x03	; 3
     118:	a0 e0       	ldi	r26, 0x00	; 0
     11a:	b1 e0       	ldi	r27, 0x01	; 1
     11c:	e6 e1       	ldi	r30, 0x16	; 22
     11e:	f1 e5       	ldi	r31, 0x51	; 81
     120:	02 c0       	rjmp	.+4      	; 0x126 <__do_copy_data+0x10>
     122:	05 90       	lpm	r0, Z+
     124:	0d 92       	st	X+, r0
     126:	ae 30       	cpi	r26, 0x0E	; 14
     128:	b1 07       	cpc	r27, r17
     12a:	d9 f7       	brne	.-10     	; 0x122 <__do_copy_data+0xc>

0000012c <__do_clear_bss>:
     12c:	26 e0       	ldi	r18, 0x06	; 6
     12e:	ae e0       	ldi	r26, 0x0E	; 14
     130:	b3 e0       	ldi	r27, 0x03	; 3
     132:	01 c0       	rjmp	.+2      	; 0x136 <.do_clear_bss_start>

00000134 <.do_clear_bss_loop>:
     134:	1d 92       	st	X+, r1

00000136 <.do_clear_bss_start>:
     136:	a2 30       	cpi	r26, 0x02	; 2
     138:	b2 07       	cpc	r27, r18
     13a:	e1 f7       	brne	.-8      	; 0x134 <.do_clear_bss_loop>

0000013c <__do_global_ctors>:
     13c:	10 e0       	ldi	r17, 0x00	; 0
     13e:	c5 e8       	ldi	r28, 0x85	; 133
     140:	d0 e0       	ldi	r29, 0x00	; 0
     142:	04 c0       	rjmp	.+8      	; 0x14c <__do_global_ctors+0x10>
     144:	21 97       	sbiw	r28, 0x01	; 1
     146:	fe 01       	movw	r30, r28
     148:	0e 94 24 28 	call	0x5048	; 0x5048 <__tablejump2__>
     14c:	c4 38       	cpi	r28, 0x84	; 132
     14e:	d1 07       	cpc	r29, r17
     150:	c9 f7       	brne	.-14     	; 0x144 <__do_global_ctors+0x8>
     152:	0e 94 ed 20 	call	0x41da	; 0x41da <main>
     156:	0c 94 89 28 	jmp	0x5112	; 0x5112 <_exit>

0000015a <__bad_interrupt>:
     15a:	52 cf       	rjmp	.-348    	; 0x0 <__vectors>

0000015c <_Z20putDigitsToInputRegsPKhh.constprop.77>:
     15c:	5f 98       	cbi	0x0b, 7	; 11
     15e:	28 98       	cbi	0x05, 0	; 5
     160:	fc 01       	movw	r30, r24
     162:	94 e0       	ldi	r25, 0x04	; 4
     164:	50 e0       	ldi	r21, 0x00	; 0
     166:	40 e0       	ldi	r20, 0x00	; 0
     168:	20 81       	ld	r18, Z
     16a:	30 e0       	ldi	r19, 0x00	; 0
     16c:	04 2e       	mov	r0, r20
     16e:	02 c0       	rjmp	.+4      	; 0x174 <_Z20putDigitsToInputRegsPKhh.constprop.77+0x18>
     170:	35 95       	asr	r19
     172:	27 95       	ror	r18
     174:	0a 94       	dec	r0
     176:	e2 f7       	brpl	.-8      	; 0x170 <_Z20putDigitsToInputRegsPKhh.constprop.77+0x14>
     178:	20 ff       	sbrs	r18, 0
     17a:	0d c0       	rjmp	.+26     	; 0x196 <_Z20putDigitsToInputRegsPKhh.constprop.77+0x3a>
     17c:	2c 9a       	sbi	0x05, 4	; 5
     17e:	28 9a       	sbi	0x05, 0	; 5
     180:	28 98       	cbi	0x05, 0	; 5
     182:	4f 5f       	subi	r20, 0xFF	; 255
     184:	5f 4f       	sbci	r21, 0xFF	; 255
     186:	48 30       	cpi	r20, 0x08	; 8
     188:	51 05       	cpc	r21, r1
     18a:	71 f7       	brne	.-36     	; 0x168 <_Z20putDigitsToInputRegsPKhh.constprop.77+0xc>
     18c:	91 50       	subi	r25, 0x01	; 1
     18e:	31 96       	adiw	r30, 0x01	; 1
     190:	91 11       	cpse	r25, r1
     192:	e8 cf       	rjmp	.-48     	; 0x164 <_Z20putDigitsToInputRegsPKhh.constprop.77+0x8>
     194:	08 95       	ret
     196:	2c 98       	cbi	0x05, 4	; 5
     198:	f2 cf       	rjmp	.-28     	; 0x17e <_Z20putDigitsToInputRegsPKhh.constprop.77+0x22>

0000019a <_ZN8Internal18DCF77_Year_Decoder5setupEv.constprop.67>:
     19a:	e9 e5       	ldi	r30, 0x59	; 89
     19c:	f4 e0       	ldi	r31, 0x04	; 4
     19e:	11 92       	st	Z+, r1
     1a0:	84 e0       	ldi	r24, 0x04	; 4
     1a2:	e3 36       	cpi	r30, 0x63	; 99
     1a4:	f8 07       	cpc	r31, r24
     1a6:	d9 f7       	brne	.-10     	; 0x19e <_ZN8Internal18DCF77_Year_Decoder5setupEv.constprop.67+0x4>
     1a8:	10 92 63 04 	sts	0x0463, r1	; 0x800463 <_ZN8Internal22DCF77_Clock_ControllerI13ConfigurationNS_23DCF77_Frequency_ControlEE12Year_DecoderE+0xa>
     1ac:	10 92 65 04 	sts	0x0465, r1	; 0x800465 <_ZN8Internal22DCF77_Clock_ControllerI13ConfigurationNS_23DCF77_Frequency_ControlEE12Year_DecoderE+0xc>
     1b0:	8b e0       	ldi	r24, 0x0B	; 11
     1b2:	80 93 66 04 	sts	0x0466, r24	; 0x800466 <_ZN8Internal22DCF77_Clock_ControllerI13ConfigurationNS_23DCF77_Frequency_ControlEE12Year_DecoderE+0xd>
     1b6:	10 92 64 04 	sts	0x0464, r1	; 0x800464 <_ZN8Internal22DCF77_Clock_ControllerI13ConfigurationNS_23DCF77_Frequency_ControlEE12Year_DecoderE+0xb>
     1ba:	e7 e6       	ldi	r30, 0x67	; 103
     1bc:	f4 e0       	ldi	r31, 0x04	; 4
     1be:	11 92       	st	Z+, r1
     1c0:	84 e0       	ldi	r24, 0x04	; 4
     1c2:	e1 37       	cpi	r30, 0x71	; 113
     1c4:	f8 07       	cpc	r31, r24
     1c6:	d9 f7       	brne	.-10     	; 0x1be <_ZN8Internal18DCF77_Year_Decoder5setupEv.constprop.67+0x24>
     1c8:	10 92 71 04 	sts	0x0471, r1	; 0x800471 <_ZN8Internal22DCF77_Clock_ControllerI13ConfigurationNS_23DCF77_Frequency_ControlEE12Year_DecoderE+0x18>
     1cc:	10 92 73 04 	sts	0x0473, r1	; 0x800473 <_ZN8Internal22DCF77_Clock_ControllerI13ConfigurationNS_23DCF77_Frequency_ControlEE12Year_DecoderE+0x1a>
     1d0:	8b e0       	ldi	r24, 0x0B	; 11
     1d2:	80 93 74 04 	sts	0x0474, r24	; 0x800474 <_ZN8Internal22DCF77_Clock_ControllerI13ConfigurationNS_23DCF77_Frequency_ControlEE12Year_DecoderE+0x1b>
     1d6:	10 92 72 04 	sts	0x0472, r1	; 0x800472 <_ZN8Internal22DCF77_Clock_ControllerI13ConfigurationNS_23DCF77_Frequency_ControlEE12Year_DecoderE+0x19>
     1da:	08 95       	ret

000001dc <_ZN8Internal20DCF77_Second_Decoder14get_time_valueEv.constprop.32>:
     1dc:	80 91 f5 03 	lds	r24, 0x03F5	; 0x8003f5 <_ZN8Internal22DCF77_Clock_ControllerI13ConfigurationNS_23DCF77_Frequency_ControlEE14Second_DecoderE+0x3e>
     1e0:	90 91 f4 03 	lds	r25, 0x03F4	; 0x8003f4 <_ZN8Internal22DCF77_Clock_ControllerI13ConfigurationNS_23DCF77_Frequency_ControlEE14Second_DecoderE+0x3d>
     1e4:	89 1b       	sub	r24, r25
     1e6:	99 0b       	sbc	r25, r25
     1e8:	0c 97       	sbiw	r24, 0x0c	; 12
     1ea:	54 f0       	brlt	.+20     	; 0x200 <_ZN8Internal20DCF77_Second_Decoder14get_time_valueEv.constprop.32+0x24>
     1ec:	80 91 f3 03 	lds	r24, 0x03F3	; 0x8003f3 <_ZN8Internal22DCF77_Clock_ControllerI13ConfigurationNS_23DCF77_Frequency_ControlEE14Second_DecoderE+0x3c>
     1f0:	8a 58       	subi	r24, 0x8A	; 138
     1f2:	90 91 f6 03 	lds	r25, 0x03F6	; 0x8003f6 <_ZN8Internal22DCF77_Clock_ControllerI13ConfigurationNS_23DCF77_Frequency_ControlEE14Second_DecoderE+0x3f>
     1f6:	89 1b       	sub	r24, r25
     1f8:	8c 33       	cpi	r24, 0x3C	; 60
     1fa:	18 f0       	brcs	.+6      	; 0x202 <_ZN8Internal20DCF77_Second_Decoder14get_time_valueEv.constprop.32+0x26>
     1fc:	8c 53       	subi	r24, 0x3C	; 60
     1fe:	fc cf       	rjmp	.-8      	; 0x1f8 <_ZN8Internal20DCF77_Second_Decoder14get_time_valueEv.constprop.32+0x1c>
     200:	8f ef       	ldi	r24, 0xFF	; 255
     202:	08 95       	ret

00000204 <_ZN8Internal7Binning6bins_tIjmLj100EE18get_quality_factorEv.constprop.23>:
     204:	ef 92       	push	r14
     206:	ff 92       	push	r15
     208:	0f 93       	push	r16
     20a:	1f 93       	push	r17
     20c:	2f b7       	in	r18, 0x3f	; 63
     20e:	f8 94       	cli
     210:	40 91 d7 05 	lds	r20, 0x05D7	; 0x8005d7 <_ZN8Internal22DCF77_Clock_ControllerI13ConfigurationNS_23DCF77_Frequency_ControlEE11DemodulatorE+0xcd>
     214:	50 91 d8 05 	lds	r21, 0x05D8	; 0x8005d8 <_ZN8Internal22DCF77_Clock_ControllerI13ConfigurationNS_23DCF77_Frequency_ControlEE11DemodulatorE+0xce>
     218:	60 91 d9 05 	lds	r22, 0x05D9	; 0x8005d9 <_ZN8Internal22DCF77_Clock_ControllerI13ConfigurationNS_23DCF77_Frequency_ControlEE11DemodulatorE+0xcf>
     21c:	70 91 da 05 	lds	r23, 0x05DA	; 0x8005da <_ZN8Internal22DCF77_Clock_ControllerI13ConfigurationNS_23DCF77_Frequency_ControlEE11DemodulatorE+0xd0>
     220:	80 91 d3 05 	lds	r24, 0x05D3	; 0x8005d3 <_ZN8Internal22DCF77_Clock_ControllerI13ConfigurationNS_23DCF77_Frequency_ControlEE11DemodulatorE+0xc9>
     224:	90 91 d4 05 	lds	r25, 0x05D4	; 0x8005d4 <_ZN8Internal22DCF77_Clock_ControllerI13ConfigurationNS_23DCF77_Frequency_ControlEE11DemodulatorE+0xca>
     228:	a0 91 d5 05 	lds	r26, 0x05D5	; 0x8005d5 <_ZN8Internal22DCF77_Clock_ControllerI13ConfigurationNS_23DCF77_Frequency_ControlEE11DemodulatorE+0xcb>
     22c:	b0 91 d6 05 	lds	r27, 0x05D6	; 0x8005d6 <_ZN8Internal22DCF77_Clock_ControllerI13ConfigurationNS_23DCF77_Frequency_ControlEE11DemodulatorE+0xcc>
     230:	84 17       	cp	r24, r20
     232:	95 07       	cpc	r25, r21
     234:	a6 07       	cpc	r26, r22
     236:	b7 07       	cpc	r27, r23
     238:	38 f0       	brcs	.+14     	; 0x248 <_ZN8Internal7Binning6bins_tIjmLj100EE18get_quality_factorEv.constprop.23+0x44>
     23a:	2f bf       	out	0x3f, r18	; 63
     23c:	80 e0       	ldi	r24, 0x00	; 0
     23e:	1f 91       	pop	r17
     240:	0f 91       	pop	r16
     242:	ff 90       	pop	r15
     244:	ef 90       	pop	r14
     246:	08 95       	ret
     248:	7a 01       	movw	r14, r20
     24a:	8b 01       	movw	r16, r22
     24c:	e8 1a       	sub	r14, r24
     24e:	f9 0a       	sbc	r15, r25
     250:	0a 0b       	sbc	r16, r26
     252:	1b 0b       	sbc	r17, r27
     254:	d8 01       	movw	r26, r16
     256:	c7 01       	movw	r24, r14
     258:	2f bf       	out	0x3f, r18	; 63
     25a:	20 e0       	ldi	r18, 0x00	; 0
     25c:	41 15       	cp	r20, r1
     25e:	51 05       	cpc	r21, r1
     260:	61 05       	cpc	r22, r1
     262:	71 05       	cpc	r23, r1
     264:	31 f0       	breq	.+12     	; 0x272 <_ZN8Internal7Binning6bins_tIjmLj100EE18get_quality_factorEv.constprop.23+0x6e>
     266:	76 95       	lsr	r23
     268:	67 95       	ror	r22
     26a:	57 95       	ror	r21
     26c:	47 95       	ror	r20
     26e:	2f 5f       	subi	r18, 0xFF	; 255
     270:	f5 cf       	rjmp	.-22     	; 0x25c <_ZN8Internal7Binning6bins_tIjmLj100EE18get_quality_factorEv.constprop.23+0x58>
     272:	22 23       	and	r18, r18
     274:	31 f0       	breq	.+12     	; 0x282 <_ZN8Internal7Binning6bins_tIjmLj100EE18get_quality_factorEv.constprop.23+0x7e>
     276:	26 95       	lsr	r18
     278:	b6 95       	lsr	r27
     27a:	a7 95       	ror	r26
     27c:	97 95       	ror	r25
     27e:	87 95       	ror	r24
     280:	f8 cf       	rjmp	.-16     	; 0x272 <_ZN8Internal7Binning6bins_tIjmLj100EE18get_quality_factorEv.constprop.23+0x6e>
     282:	8f 3f       	cpi	r24, 0xFF	; 255
     284:	91 05       	cpc	r25, r1
     286:	a1 05       	cpc	r26, r1
     288:	b1 05       	cpc	r27, r1
     28a:	c9 f2       	breq	.-78     	; 0x23e <_ZN8Internal7Binning6bins_tIjmLj100EE18get_quality_factorEv.constprop.23+0x3a>
     28c:	c0 f2       	brcs	.-80     	; 0x23e <_ZN8Internal7Binning6bins_tIjmLj100EE18get_quality_factorEv.constprop.23+0x3a>
     28e:	8f ef       	ldi	r24, 0xFF	; 255
     290:	90 e0       	ldi	r25, 0x00	; 0
     292:	a0 e0       	ldi	r26, 0x00	; 0
     294:	b0 e0       	ldi	r27, 0x00	; 0
     296:	d3 cf       	rjmp	.-90     	; 0x23e <_ZN8Internal7Binning6bins_tIjmLj100EE18get_quality_factorEv.constprop.23+0x3a>

00000298 <_ZN8Internal7Binning6bins_tIhhLj12EE18get_quality_factorEv.constprop.20>:
     298:	8f b7       	in	r24, 0x3f	; 63
     29a:	f8 94       	cli
     29c:	90 91 57 04 	lds	r25, 0x0457	; 0x800457 <_ZN8Internal22DCF77_Clock_ControllerI13ConfigurationNS_23DCF77_Frequency_ControlEE13Month_DecoderE+0xe>
     2a0:	20 91 56 04 	lds	r18, 0x0456	; 0x800456 <_ZN8Internal22DCF77_Clock_ControllerI13ConfigurationNS_23DCF77_Frequency_ControlEE13Month_DecoderE+0xd>
     2a4:	29 17       	cp	r18, r25
     2a6:	18 f0       	brcs	.+6      	; 0x2ae <_ZN8Internal7Binning6bins_tIhhLj12EE18get_quality_factorEv.constprop.20+0x16>
     2a8:	8f bf       	out	0x3f, r24	; 63
     2aa:	80 e0       	ldi	r24, 0x00	; 0
     2ac:	08 95       	ret
     2ae:	39 2f       	mov	r19, r25
     2b0:	32 1b       	sub	r19, r18
     2b2:	23 2f       	mov	r18, r19
     2b4:	8f bf       	out	0x3f, r24	; 63
     2b6:	80 e0       	ldi	r24, 0x00	; 0
     2b8:	9d 31       	cpi	r25, 0x1D	; 29
     2ba:	40 f4       	brcc	.+16     	; 0x2cc <_ZN8Internal7Binning6bins_tIhhLj12EE18get_quality_factorEv.constprop.20+0x34>
     2bc:	9d 30       	cpi	r25, 0x0D	; 13
     2be:	08 f4       	brcc	.+2      	; 0x2c2 <_ZN8Internal7Binning6bins_tIhhLj12EE18get_quality_factorEv.constprop.20+0x2a>
     2c0:	45 c0       	rjmp	.+138    	; 0x34c <_ZN8Internal7Binning6bins_tIhhLj12EE18get_quality_factorEv.constprop.20+0xb4>
     2c2:	83 2f       	mov	r24, r19
     2c4:	86 95       	lsr	r24
     2c6:	86 95       	lsr	r24
     2c8:	08 95       	ret
     2ca:	83 2f       	mov	r24, r19
     2cc:	96 95       	lsr	r25
     2ce:	31 e0       	ldi	r19, 0x01	; 1
     2d0:	38 0f       	add	r19, r24
     2d2:	91 11       	cpse	r25, r1
     2d4:	fa cf       	rjmp	.-12     	; 0x2ca <_ZN8Internal7Binning6bins_tIhhLj12EE18get_quality_factorEv.constprop.20+0x32>
     2d6:	8d 30       	cpi	r24, 0x0D	; 13
     2d8:	68 f0       	brcs	.+26     	; 0x2f4 <_ZN8Internal7Binning6bins_tIhhLj12EE18get_quality_factorEv.constprop.20+0x5c>
     2da:	8d 30       	cpi	r24, 0x0D	; 13
     2dc:	29 f1       	breq	.+74     	; 0x328 <_ZN8Internal7Binning6bins_tIhhLj12EE18get_quality_factorEv.constprop.20+0x90>
     2de:	8e 30       	cpi	r24, 0x0E	; 14
     2e0:	31 f1       	breq	.+76     	; 0x32e <_ZN8Internal7Binning6bins_tIhhLj12EE18get_quality_factorEv.constprop.20+0x96>
     2e2:	81 e1       	ldi	r24, 0x11	; 17
     2e4:	90 e0       	ldi	r25, 0x00	; 0
     2e6:	28 9f       	mul	r18, r24
     2e8:	a0 01       	movw	r20, r0
     2ea:	29 9f       	mul	r18, r25
     2ec:	50 0d       	add	r21, r0
     2ee:	11 24       	eor	r1, r1
     2f0:	85 2f       	mov	r24, r21
     2f2:	08 95       	ret
     2f4:	89 30       	cpi	r24, 0x09	; 9
     2f6:	60 f0       	brcs	.+24     	; 0x310 <_ZN8Internal7Binning6bins_tIhhLj12EE18get_quality_factorEv.constprop.20+0x78>
     2f8:	8b 30       	cpi	r24, 0x0B	; 11
     2fa:	28 f0       	brcs	.+10     	; 0x306 <_ZN8Internal7Binning6bins_tIhhLj12EE18get_quality_factorEv.constprop.20+0x6e>
     2fc:	8c 30       	cpi	r24, 0x0C	; 12
     2fe:	d1 f4       	brne	.+52     	; 0x334 <_ZN8Internal7Binning6bins_tIhhLj12EE18get_quality_factorEv.constprop.20+0x9c>
     300:	85 e1       	ldi	r24, 0x15	; 21
     302:	90 e0       	ldi	r25, 0x00	; 0
     304:	f0 cf       	rjmp	.-32     	; 0x2e6 <_ZN8Internal7Binning6bins_tIhhLj12EE18get_quality_factorEv.constprop.20+0x4e>
     306:	8a 30       	cpi	r24, 0x0A	; 10
     308:	c1 f4       	brne	.+48     	; 0x33a <_ZN8Internal7Binning6bins_tIhhLj12EE18get_quality_factorEv.constprop.20+0xa2>
     30a:	89 e1       	ldi	r24, 0x19	; 25
     30c:	90 e0       	ldi	r25, 0x00	; 0
     30e:	eb cf       	rjmp	.-42     	; 0x2e6 <_ZN8Internal7Binning6bins_tIhhLj12EE18get_quality_factorEv.constprop.20+0x4e>
     310:	87 30       	cpi	r24, 0x07	; 7
     312:	28 f0       	brcs	.+10     	; 0x31e <_ZN8Internal7Binning6bins_tIhhLj12EE18get_quality_factorEv.constprop.20+0x86>
     314:	88 30       	cpi	r24, 0x08	; 8
     316:	a1 f4       	brne	.+40     	; 0x340 <_ZN8Internal7Binning6bins_tIhhLj12EE18get_quality_factorEv.constprop.20+0xa8>
     318:	80 e2       	ldi	r24, 0x20	; 32
     31a:	90 e0       	ldi	r25, 0x00	; 0
     31c:	e4 cf       	rjmp	.-56     	; 0x2e6 <_ZN8Internal7Binning6bins_tIhhLj12EE18get_quality_factorEv.constprop.20+0x4e>
     31e:	86 30       	cpi	r24, 0x06	; 6
     320:	91 f4       	brne	.+36     	; 0x346 <_ZN8Internal7Binning6bins_tIhhLj12EE18get_quality_factorEv.constprop.20+0xae>
     322:	8a e2       	ldi	r24, 0x2A	; 42
     324:	90 e0       	ldi	r25, 0x00	; 0
     326:	df cf       	rjmp	.-66     	; 0x2e6 <_ZN8Internal7Binning6bins_tIhhLj12EE18get_quality_factorEv.constprop.20+0x4e>
     328:	83 e1       	ldi	r24, 0x13	; 19
     32a:	90 e0       	ldi	r25, 0x00	; 0
     32c:	dc cf       	rjmp	.-72     	; 0x2e6 <_ZN8Internal7Binning6bins_tIhhLj12EE18get_quality_factorEv.constprop.20+0x4e>
     32e:	82 e1       	ldi	r24, 0x12	; 18
     330:	90 e0       	ldi	r25, 0x00	; 0
     332:	d9 cf       	rjmp	.-78     	; 0x2e6 <_ZN8Internal7Binning6bins_tIhhLj12EE18get_quality_factorEv.constprop.20+0x4e>
     334:	87 e1       	ldi	r24, 0x17	; 23
     336:	90 e0       	ldi	r25, 0x00	; 0
     338:	d6 cf       	rjmp	.-84     	; 0x2e6 <_ZN8Internal7Binning6bins_tIhhLj12EE18get_quality_factorEv.constprop.20+0x4e>
     33a:	8c e1       	ldi	r24, 0x1C	; 28
     33c:	90 e0       	ldi	r25, 0x00	; 0
     33e:	d3 cf       	rjmp	.-90     	; 0x2e6 <_ZN8Internal7Binning6bins_tIhhLj12EE18get_quality_factorEv.constprop.20+0x4e>
     340:	84 e2       	ldi	r24, 0x24	; 36
     342:	90 e0       	ldi	r25, 0x00	; 0
     344:	d0 cf       	rjmp	.-96     	; 0x2e6 <_ZN8Internal7Binning6bins_tIhhLj12EE18get_quality_factorEv.constprop.20+0x4e>
     346:	83 e3       	ldi	r24, 0x33	; 51
     348:	90 e0       	ldi	r25, 0x00	; 0
     34a:	cd cf       	rjmp	.-102    	; 0x2e6 <_ZN8Internal7Binning6bins_tIhhLj12EE18get_quality_factorEv.constprop.20+0x4e>
     34c:	99 30       	cpi	r25, 0x09	; 9
     34e:	48 f0       	brcs	.+18     	; 0x362 <_ZN8Internal7Binning6bins_tIhhLj12EE18get_quality_factorEv.constprop.20+0xca>
     350:	3b 30       	cpi	r19, 0x0B	; 11
     352:	a0 f4       	brcc	.+40     	; 0x37c <_ZN8Internal7Binning6bins_tIhhLj12EE18get_quality_factorEv.constprop.20+0xe4>
     354:	37 30       	cpi	r19, 0x07	; 7
     356:	a0 f4       	brcc	.+40     	; 0x380 <_ZN8Internal7Binning6bins_tIhhLj12EE18get_quality_factorEv.constprop.20+0xe8>
     358:	81 e0       	ldi	r24, 0x01	; 1
     35a:	34 30       	cpi	r19, 0x04	; 4
     35c:	08 f4       	brcc	.+2      	; 0x360 <_ZN8Internal7Binning6bins_tIhhLj12EE18get_quality_factorEv.constprop.20+0xc8>
     35e:	a5 cf       	rjmp	.-182    	; 0x2aa <_ZN8Internal7Binning6bins_tIhhLj12EE18get_quality_factorEv.constprop.20+0x12>
     360:	08 95       	ret
     362:	95 30       	cpi	r25, 0x05	; 5
     364:	30 f0       	brcs	.+12     	; 0x372 <_ZN8Internal7Binning6bins_tIhhLj12EE18get_quality_factorEv.constprop.20+0xda>
     366:	36 30       	cpi	r19, 0x06	; 6
     368:	58 f4       	brcc	.+22     	; 0x380 <_ZN8Internal7Binning6bins_tIhhLj12EE18get_quality_factorEv.constprop.20+0xe8>
     36a:	81 e0       	ldi	r24, 0x01	; 1
     36c:	23 30       	cpi	r18, 0x03	; 3
     36e:	c0 f7       	brcc	.-16     	; 0x360 <_ZN8Internal7Binning6bins_tIhhLj12EE18get_quality_factorEv.constprop.20+0xc8>
     370:	9c cf       	rjmp	.-200    	; 0x2aa <_ZN8Internal7Binning6bins_tIhhLj12EE18get_quality_factorEv.constprop.20+0x12>
     372:	93 30       	cpi	r25, 0x03	; 3
     374:	d0 f7       	brcc	.-12     	; 0x36a <_ZN8Internal7Binning6bins_tIhhLj12EE18get_quality_factorEv.constprop.20+0xd2>
     376:	83 2f       	mov	r24, r19
     378:	86 95       	lsr	r24
     37a:	08 95       	ret
     37c:	83 e0       	ldi	r24, 0x03	; 3
     37e:	08 95       	ret
     380:	82 e0       	ldi	r24, 0x02	; 2
     382:	ee cf       	rjmp	.-36     	; 0x360 <_ZN8Internal7Binning6bins_tIhhLj12EE18get_quality_factorEv.constprop.20+0xc8>

00000384 <_ZN8Internal7Binning6bins_tIhhLj31EE18get_quality_factorEv.constprop.19>:
     384:	8f b7       	in	r24, 0x3f	; 63
     386:	f8 94       	cli
     388:	90 91 47 04 	lds	r25, 0x0447	; 0x800447 <_ZN8Internal22DCF77_Clock_ControllerI13ConfigurationNS_23DCF77_Frequency_ControlEE11Day_DecoderE+0x21>
     38c:	20 91 46 04 	lds	r18, 0x0446	; 0x800446 <_ZN8Internal22DCF77_Clock_ControllerI13ConfigurationNS_23DCF77_Frequency_ControlEE11Day_DecoderE+0x20>
     390:	29 17       	cp	r18, r25
     392:	18 f0       	brcs	.+6      	; 0x39a <_ZN8Internal7Binning6bins_tIhhLj31EE18get_quality_factorEv.constprop.19+0x16>
     394:	8f bf       	out	0x3f, r24	; 63
     396:	80 e0       	ldi	r24, 0x00	; 0
     398:	08 95       	ret
     39a:	39 2f       	mov	r19, r25
     39c:	32 1b       	sub	r19, r18
     39e:	23 2f       	mov	r18, r19
     3a0:	8f bf       	out	0x3f, r24	; 63
     3a2:	80 e0       	ldi	r24, 0x00	; 0
     3a4:	9d 31       	cpi	r25, 0x1D	; 29
     3a6:	40 f4       	brcc	.+16     	; 0x3b8 <_ZN8Internal7Binning6bins_tIhhLj31EE18get_quality_factorEv.constprop.19+0x34>
     3a8:	9d 30       	cpi	r25, 0x0D	; 13
     3aa:	08 f4       	brcc	.+2      	; 0x3ae <_ZN8Internal7Binning6bins_tIhhLj31EE18get_quality_factorEv.constprop.19+0x2a>
     3ac:	45 c0       	rjmp	.+138    	; 0x438 <__LOCK_REGION_LENGTH__+0x38>
     3ae:	83 2f       	mov	r24, r19
     3b0:	86 95       	lsr	r24
     3b2:	86 95       	lsr	r24
     3b4:	08 95       	ret
     3b6:	83 2f       	mov	r24, r19
     3b8:	96 95       	lsr	r25
     3ba:	31 e0       	ldi	r19, 0x01	; 1
     3bc:	38 0f       	add	r19, r24
     3be:	91 11       	cpse	r25, r1
     3c0:	fa cf       	rjmp	.-12     	; 0x3b6 <_ZN8Internal7Binning6bins_tIhhLj31EE18get_quality_factorEv.constprop.19+0x32>
     3c2:	8d 30       	cpi	r24, 0x0D	; 13
     3c4:	68 f0       	brcs	.+26     	; 0x3e0 <_ZN8Internal7Binning6bins_tIhhLj31EE18get_quality_factorEv.constprop.19+0x5c>
     3c6:	8d 30       	cpi	r24, 0x0D	; 13
     3c8:	29 f1       	breq	.+74     	; 0x414 <__LOCK_REGION_LENGTH__+0x14>
     3ca:	8e 30       	cpi	r24, 0x0E	; 14
     3cc:	31 f1       	breq	.+76     	; 0x41a <__LOCK_REGION_LENGTH__+0x1a>
     3ce:	81 e1       	ldi	r24, 0x11	; 17
     3d0:	90 e0       	ldi	r25, 0x00	; 0
     3d2:	28 9f       	mul	r18, r24
     3d4:	a0 01       	movw	r20, r0
     3d6:	29 9f       	mul	r18, r25
     3d8:	50 0d       	add	r21, r0
     3da:	11 24       	eor	r1, r1
     3dc:	85 2f       	mov	r24, r21
     3de:	08 95       	ret
     3e0:	89 30       	cpi	r24, 0x09	; 9
     3e2:	60 f0       	brcs	.+24     	; 0x3fc <_ZN8Internal7Binning6bins_tIhhLj31EE18get_quality_factorEv.constprop.19+0x78>
     3e4:	8b 30       	cpi	r24, 0x0B	; 11
     3e6:	28 f0       	brcs	.+10     	; 0x3f2 <_ZN8Internal7Binning6bins_tIhhLj31EE18get_quality_factorEv.constprop.19+0x6e>
     3e8:	8c 30       	cpi	r24, 0x0C	; 12
     3ea:	d1 f4       	brne	.+52     	; 0x420 <__LOCK_REGION_LENGTH__+0x20>
     3ec:	85 e1       	ldi	r24, 0x15	; 21
     3ee:	90 e0       	ldi	r25, 0x00	; 0
     3f0:	f0 cf       	rjmp	.-32     	; 0x3d2 <_ZN8Internal7Binning6bins_tIhhLj31EE18get_quality_factorEv.constprop.19+0x4e>
     3f2:	8a 30       	cpi	r24, 0x0A	; 10
     3f4:	c1 f4       	brne	.+48     	; 0x426 <__LOCK_REGION_LENGTH__+0x26>
     3f6:	89 e1       	ldi	r24, 0x19	; 25
     3f8:	90 e0       	ldi	r25, 0x00	; 0
     3fa:	eb cf       	rjmp	.-42     	; 0x3d2 <_ZN8Internal7Binning6bins_tIhhLj31EE18get_quality_factorEv.constprop.19+0x4e>
     3fc:	87 30       	cpi	r24, 0x07	; 7
     3fe:	28 f0       	brcs	.+10     	; 0x40a <__LOCK_REGION_LENGTH__+0xa>
     400:	88 30       	cpi	r24, 0x08	; 8
     402:	a1 f4       	brne	.+40     	; 0x42c <__LOCK_REGION_LENGTH__+0x2c>
     404:	80 e2       	ldi	r24, 0x20	; 32
     406:	90 e0       	ldi	r25, 0x00	; 0
     408:	e4 cf       	rjmp	.-56     	; 0x3d2 <_ZN8Internal7Binning6bins_tIhhLj31EE18get_quality_factorEv.constprop.19+0x4e>
     40a:	86 30       	cpi	r24, 0x06	; 6
     40c:	91 f4       	brne	.+36     	; 0x432 <__LOCK_REGION_LENGTH__+0x32>
     40e:	8a e2       	ldi	r24, 0x2A	; 42
     410:	90 e0       	ldi	r25, 0x00	; 0
     412:	df cf       	rjmp	.-66     	; 0x3d2 <_ZN8Internal7Binning6bins_tIhhLj31EE18get_quality_factorEv.constprop.19+0x4e>
     414:	83 e1       	ldi	r24, 0x13	; 19
     416:	90 e0       	ldi	r25, 0x00	; 0
     418:	dc cf       	rjmp	.-72     	; 0x3d2 <_ZN8Internal7Binning6bins_tIhhLj31EE18get_quality_factorEv.constprop.19+0x4e>
     41a:	82 e1       	ldi	r24, 0x12	; 18
     41c:	90 e0       	ldi	r25, 0x00	; 0
     41e:	d9 cf       	rjmp	.-78     	; 0x3d2 <_ZN8Internal7Binning6bins_tIhhLj31EE18get_quality_factorEv.constprop.19+0x4e>
     420:	87 e1       	ldi	r24, 0x17	; 23
     422:	90 e0       	ldi	r25, 0x00	; 0
     424:	d6 cf       	rjmp	.-84     	; 0x3d2 <_ZN8Internal7Binning6bins_tIhhLj31EE18get_quality_factorEv.constprop.19+0x4e>
     426:	8c e1       	ldi	r24, 0x1C	; 28
     428:	90 e0       	ldi	r25, 0x00	; 0
     42a:	d3 cf       	rjmp	.-90     	; 0x3d2 <_ZN8Internal7Binning6bins_tIhhLj31EE18get_quality_factorEv.constprop.19+0x4e>
     42c:	84 e2       	ldi	r24, 0x24	; 36
     42e:	90 e0       	ldi	r25, 0x00	; 0
     430:	d0 cf       	rjmp	.-96     	; 0x3d2 <_ZN8Internal7Binning6bins_tIhhLj31EE18get_quality_factorEv.constprop.19+0x4e>
     432:	83 e3       	ldi	r24, 0x33	; 51
     434:	90 e0       	ldi	r25, 0x00	; 0
     436:	cd cf       	rjmp	.-102    	; 0x3d2 <_ZN8Internal7Binning6bins_tIhhLj31EE18get_quality_factorEv.constprop.19+0x4e>
     438:	99 30       	cpi	r25, 0x09	; 9
     43a:	48 f0       	brcs	.+18     	; 0x44e <__LOCK_REGION_LENGTH__+0x4e>
     43c:	3b 30       	cpi	r19, 0x0B	; 11
     43e:	a0 f4       	brcc	.+40     	; 0x468 <__LOCK_REGION_LENGTH__+0x68>
     440:	37 30       	cpi	r19, 0x07	; 7
     442:	a0 f4       	brcc	.+40     	; 0x46c <__LOCK_REGION_LENGTH__+0x6c>
     444:	81 e0       	ldi	r24, 0x01	; 1
     446:	34 30       	cpi	r19, 0x04	; 4
     448:	08 f4       	brcc	.+2      	; 0x44c <__LOCK_REGION_LENGTH__+0x4c>
     44a:	a5 cf       	rjmp	.-182    	; 0x396 <_ZN8Internal7Binning6bins_tIhhLj31EE18get_quality_factorEv.constprop.19+0x12>
     44c:	08 95       	ret
     44e:	95 30       	cpi	r25, 0x05	; 5
     450:	30 f0       	brcs	.+12     	; 0x45e <__LOCK_REGION_LENGTH__+0x5e>
     452:	36 30       	cpi	r19, 0x06	; 6
     454:	58 f4       	brcc	.+22     	; 0x46c <__LOCK_REGION_LENGTH__+0x6c>
     456:	81 e0       	ldi	r24, 0x01	; 1
     458:	23 30       	cpi	r18, 0x03	; 3
     45a:	c0 f7       	brcc	.-16     	; 0x44c <__LOCK_REGION_LENGTH__+0x4c>
     45c:	9c cf       	rjmp	.-200    	; 0x396 <_ZN8Internal7Binning6bins_tIhhLj31EE18get_quality_factorEv.constprop.19+0x12>
     45e:	93 30       	cpi	r25, 0x03	; 3
     460:	d0 f7       	brcc	.-12     	; 0x456 <__LOCK_REGION_LENGTH__+0x56>
     462:	83 2f       	mov	r24, r19
     464:	86 95       	lsr	r24
     466:	08 95       	ret
     468:	83 e0       	ldi	r24, 0x03	; 3
     46a:	08 95       	ret
     46c:	82 e0       	ldi	r24, 0x02	; 2
     46e:	ee cf       	rjmp	.-36     	; 0x44c <__LOCK_REGION_LENGTH__+0x4c>

00000470 <_ZN8Internal7Binning6bins_tIhhLj24EE18get_quality_factorEv.constprop.18>:
     470:	8f b7       	in	r24, 0x3f	; 63
     472:	f8 94       	cli
     474:	90 91 19 04 	lds	r25, 0x0419	; 0x800419 <_ZN8Internal22DCF77_Clock_ControllerI13ConfigurationNS_23DCF77_Frequency_ControlEE12Hour_DecoderE+0x1a>
     478:	20 91 18 04 	lds	r18, 0x0418	; 0x800418 <_ZN8Internal22DCF77_Clock_ControllerI13ConfigurationNS_23DCF77_Frequency_ControlEE12Hour_DecoderE+0x19>
     47c:	29 17       	cp	r18, r25
     47e:	18 f0       	brcs	.+6      	; 0x486 <_ZN8Internal7Binning6bins_tIhhLj24EE18get_quality_factorEv.constprop.18+0x16>
     480:	8f bf       	out	0x3f, r24	; 63
     482:	80 e0       	ldi	r24, 0x00	; 0
     484:	08 95       	ret
     486:	39 2f       	mov	r19, r25
     488:	32 1b       	sub	r19, r18
     48a:	23 2f       	mov	r18, r19
     48c:	8f bf       	out	0x3f, r24	; 63
     48e:	80 e0       	ldi	r24, 0x00	; 0
     490:	9d 31       	cpi	r25, 0x1D	; 29
     492:	40 f4       	brcc	.+16     	; 0x4a4 <_ZN8Internal7Binning6bins_tIhhLj24EE18get_quality_factorEv.constprop.18+0x34>
     494:	9d 30       	cpi	r25, 0x0D	; 13
     496:	08 f4       	brcc	.+2      	; 0x49a <_ZN8Internal7Binning6bins_tIhhLj24EE18get_quality_factorEv.constprop.18+0x2a>
     498:	45 c0       	rjmp	.+138    	; 0x524 <_ZN8Internal7Binning6bins_tIhhLj24EE18get_quality_factorEv.constprop.18+0xb4>
     49a:	83 2f       	mov	r24, r19
     49c:	86 95       	lsr	r24
     49e:	86 95       	lsr	r24
     4a0:	08 95       	ret
     4a2:	83 2f       	mov	r24, r19
     4a4:	96 95       	lsr	r25
     4a6:	31 e0       	ldi	r19, 0x01	; 1
     4a8:	38 0f       	add	r19, r24
     4aa:	91 11       	cpse	r25, r1
     4ac:	fa cf       	rjmp	.-12     	; 0x4a2 <_ZN8Internal7Binning6bins_tIhhLj24EE18get_quality_factorEv.constprop.18+0x32>
     4ae:	8d 30       	cpi	r24, 0x0D	; 13
     4b0:	68 f0       	brcs	.+26     	; 0x4cc <_ZN8Internal7Binning6bins_tIhhLj24EE18get_quality_factorEv.constprop.18+0x5c>
     4b2:	8d 30       	cpi	r24, 0x0D	; 13
     4b4:	29 f1       	breq	.+74     	; 0x500 <_ZN8Internal7Binning6bins_tIhhLj24EE18get_quality_factorEv.constprop.18+0x90>
     4b6:	8e 30       	cpi	r24, 0x0E	; 14
     4b8:	31 f1       	breq	.+76     	; 0x506 <_ZN8Internal7Binning6bins_tIhhLj24EE18get_quality_factorEv.constprop.18+0x96>
     4ba:	81 e1       	ldi	r24, 0x11	; 17
     4bc:	90 e0       	ldi	r25, 0x00	; 0
     4be:	28 9f       	mul	r18, r24
     4c0:	a0 01       	movw	r20, r0
     4c2:	29 9f       	mul	r18, r25
     4c4:	50 0d       	add	r21, r0
     4c6:	11 24       	eor	r1, r1
     4c8:	85 2f       	mov	r24, r21
     4ca:	08 95       	ret
     4cc:	89 30       	cpi	r24, 0x09	; 9
     4ce:	60 f0       	brcs	.+24     	; 0x4e8 <_ZN8Internal7Binning6bins_tIhhLj24EE18get_quality_factorEv.constprop.18+0x78>
     4d0:	8b 30       	cpi	r24, 0x0B	; 11
     4d2:	28 f0       	brcs	.+10     	; 0x4de <_ZN8Internal7Binning6bins_tIhhLj24EE18get_quality_factorEv.constprop.18+0x6e>
     4d4:	8c 30       	cpi	r24, 0x0C	; 12
     4d6:	d1 f4       	brne	.+52     	; 0x50c <_ZN8Internal7Binning6bins_tIhhLj24EE18get_quality_factorEv.constprop.18+0x9c>
     4d8:	85 e1       	ldi	r24, 0x15	; 21
     4da:	90 e0       	ldi	r25, 0x00	; 0
     4dc:	f0 cf       	rjmp	.-32     	; 0x4be <_ZN8Internal7Binning6bins_tIhhLj24EE18get_quality_factorEv.constprop.18+0x4e>
     4de:	8a 30       	cpi	r24, 0x0A	; 10
     4e0:	c1 f4       	brne	.+48     	; 0x512 <_ZN8Internal7Binning6bins_tIhhLj24EE18get_quality_factorEv.constprop.18+0xa2>
     4e2:	89 e1       	ldi	r24, 0x19	; 25
     4e4:	90 e0       	ldi	r25, 0x00	; 0
     4e6:	eb cf       	rjmp	.-42     	; 0x4be <_ZN8Internal7Binning6bins_tIhhLj24EE18get_quality_factorEv.constprop.18+0x4e>
     4e8:	87 30       	cpi	r24, 0x07	; 7
     4ea:	28 f0       	brcs	.+10     	; 0x4f6 <_ZN8Internal7Binning6bins_tIhhLj24EE18get_quality_factorEv.constprop.18+0x86>
     4ec:	88 30       	cpi	r24, 0x08	; 8
     4ee:	a1 f4       	brne	.+40     	; 0x518 <_ZN8Internal7Binning6bins_tIhhLj24EE18get_quality_factorEv.constprop.18+0xa8>
     4f0:	80 e2       	ldi	r24, 0x20	; 32
     4f2:	90 e0       	ldi	r25, 0x00	; 0
     4f4:	e4 cf       	rjmp	.-56     	; 0x4be <_ZN8Internal7Binning6bins_tIhhLj24EE18get_quality_factorEv.constprop.18+0x4e>
     4f6:	86 30       	cpi	r24, 0x06	; 6
     4f8:	91 f4       	brne	.+36     	; 0x51e <_ZN8Internal7Binning6bins_tIhhLj24EE18get_quality_factorEv.constprop.18+0xae>
     4fa:	8a e2       	ldi	r24, 0x2A	; 42
     4fc:	90 e0       	ldi	r25, 0x00	; 0
     4fe:	df cf       	rjmp	.-66     	; 0x4be <_ZN8Internal7Binning6bins_tIhhLj24EE18get_quality_factorEv.constprop.18+0x4e>
     500:	83 e1       	ldi	r24, 0x13	; 19
     502:	90 e0       	ldi	r25, 0x00	; 0
     504:	dc cf       	rjmp	.-72     	; 0x4be <_ZN8Internal7Binning6bins_tIhhLj24EE18get_quality_factorEv.constprop.18+0x4e>
     506:	82 e1       	ldi	r24, 0x12	; 18
     508:	90 e0       	ldi	r25, 0x00	; 0
     50a:	d9 cf       	rjmp	.-78     	; 0x4be <_ZN8Internal7Binning6bins_tIhhLj24EE18get_quality_factorEv.constprop.18+0x4e>
     50c:	87 e1       	ldi	r24, 0x17	; 23
     50e:	90 e0       	ldi	r25, 0x00	; 0
     510:	d6 cf       	rjmp	.-84     	; 0x4be <_ZN8Internal7Binning6bins_tIhhLj24EE18get_quality_factorEv.constprop.18+0x4e>
     512:	8c e1       	ldi	r24, 0x1C	; 28
     514:	90 e0       	ldi	r25, 0x00	; 0
     516:	d3 cf       	rjmp	.-90     	; 0x4be <_ZN8Internal7Binning6bins_tIhhLj24EE18get_quality_factorEv.constprop.18+0x4e>
     518:	84 e2       	ldi	r24, 0x24	; 36
     51a:	90 e0       	ldi	r25, 0x00	; 0
     51c:	d0 cf       	rjmp	.-96     	; 0x4be <_ZN8Internal7Binning6bins_tIhhLj24EE18get_quality_factorEv.constprop.18+0x4e>
     51e:	83 e3       	ldi	r24, 0x33	; 51
     520:	90 e0       	ldi	r25, 0x00	; 0
     522:	cd cf       	rjmp	.-102    	; 0x4be <_ZN8Internal7Binning6bins_tIhhLj24EE18get_quality_factorEv.constprop.18+0x4e>
     524:	99 30       	cpi	r25, 0x09	; 9
     526:	48 f0       	brcs	.+18     	; 0x53a <_ZN8Internal7Binning6bins_tIhhLj24EE18get_quality_factorEv.constprop.18+0xca>
     528:	3b 30       	cpi	r19, 0x0B	; 11
     52a:	a0 f4       	brcc	.+40     	; 0x554 <_ZN8Internal7Binning6bins_tIhhLj24EE18get_quality_factorEv.constprop.18+0xe4>
     52c:	37 30       	cpi	r19, 0x07	; 7
     52e:	a0 f4       	brcc	.+40     	; 0x558 <_ZN8Internal7Binning6bins_tIhhLj24EE18get_quality_factorEv.constprop.18+0xe8>
     530:	81 e0       	ldi	r24, 0x01	; 1
     532:	34 30       	cpi	r19, 0x04	; 4
     534:	08 f4       	brcc	.+2      	; 0x538 <_ZN8Internal7Binning6bins_tIhhLj24EE18get_quality_factorEv.constprop.18+0xc8>
     536:	a5 cf       	rjmp	.-182    	; 0x482 <_ZN8Internal7Binning6bins_tIhhLj24EE18get_quality_factorEv.constprop.18+0x12>
     538:	08 95       	ret
     53a:	95 30       	cpi	r25, 0x05	; 5
     53c:	30 f0       	brcs	.+12     	; 0x54a <_ZN8Internal7Binning6bins_tIhhLj24EE18get_quality_factorEv.constprop.18+0xda>
     53e:	36 30       	cpi	r19, 0x06	; 6
     540:	58 f4       	brcc	.+22     	; 0x558 <_ZN8Internal7Binning6bins_tIhhLj24EE18get_quality_factorEv.constprop.18+0xe8>
     542:	81 e0       	ldi	r24, 0x01	; 1
     544:	23 30       	cpi	r18, 0x03	; 3
     546:	c0 f7       	brcc	.-16     	; 0x538 <_ZN8Internal7Binning6bins_tIhhLj24EE18get_quality_factorEv.constprop.18+0xc8>
     548:	9c cf       	rjmp	.-200    	; 0x482 <_ZN8Internal7Binning6bins_tIhhLj24EE18get_quality_factorEv.constprop.18+0x12>
     54a:	93 30       	cpi	r25, 0x03	; 3
     54c:	d0 f7       	brcc	.-12     	; 0x542 <_ZN8Internal7Binning6bins_tIhhLj24EE18get_quality_factorEv.constprop.18+0xd2>
     54e:	83 2f       	mov	r24, r19
     550:	86 95       	lsr	r24
     552:	08 95       	ret
     554:	83 e0       	ldi	r24, 0x03	; 3
     556:	08 95       	ret
     558:	82 e0       	ldi	r24, 0x02	; 2
     55a:	ee cf       	rjmp	.-36     	; 0x538 <_ZN8Internal7Binning6bins_tIhhLj24EE18get_quality_factorEv.constprop.18+0xc8>

0000055c <twi_init>:
     55c:	10 92 9b 04 	sts	0x049B, r1	; 0x80049b <_state>
     560:	81 e0       	ldi	r24, 0x01	; 1
     562:	80 93 9a 04 	sts	0x049A, r24	; 0x80049a <_send_stop>
     566:	10 92 95 04 	sts	0x0495, r1	; 0x800495 <_rep_start>
     56a:	3c 98       	cbi	0x07, 4	; 7
     56c:	3d 98       	cbi	0x07, 5	; 7
     56e:	44 9a       	sbi	0x08, 4	; 8
     570:	45 9a       	sbi	0x08, 5	; 8
     572:	e9 eb       	ldi	r30, 0xB9	; 185
     574:	f0 e0       	ldi	r31, 0x00	; 0
     576:	80 81       	ld	r24, Z
     578:	8c 7f       	andi	r24, 0xFC	; 252
     57a:	80 83       	st	Z, r24
     57c:	88 e4       	ldi	r24, 0x48	; 72
     57e:	80 93 b8 00 	sts	0x00B8, r24	; 0x8000b8 <__TEXT_REGION_LENGTH__+0x7e00b8>
     582:	85 e4       	ldi	r24, 0x45	; 69
     584:	80 93 bc 00 	sts	0x00BC, r24	; 0x8000bc <__TEXT_REGION_LENGTH__+0x7e00bc>
     588:	08 95       	ret

0000058a <_twi_handle_timeout>:
     58a:	cf 93       	push	r28
     58c:	df 93       	push	r29
     58e:	81 e0       	ldi	r24, 0x01	; 1
     590:	80 93 76 03 	sts	0x0376, r24	; 0x800376 <_timed_out>
     594:	80 91 75 03 	lds	r24, 0x0375	; 0x800375 <_reset_on_timeout>
     598:	88 23       	and	r24, r24
     59a:	91 f0       	breq	.+36     	; 0x5c0 <_twi_handle_timeout+0x36>
     59c:	d0 91 b8 00 	lds	r29, 0x00B8	; 0x8000b8 <__TEXT_REGION_LENGTH__+0x7e00b8>
     5a0:	c0 91 ba 00 	lds	r28, 0x00BA	; 0x8000ba <__TEXT_REGION_LENGTH__+0x7e00ba>
     5a4:	80 91 bc 00 	lds	r24, 0x00BC	; 0x8000bc <__TEXT_REGION_LENGTH__+0x7e00bc>
     5a8:	8a 7b       	andi	r24, 0xBA	; 186
     5aa:	80 93 bc 00 	sts	0x00BC, r24	; 0x8000bc <__TEXT_REGION_LENGTH__+0x7e00bc>
     5ae:	3c 98       	cbi	0x07, 4	; 7
     5b0:	3d 98       	cbi	0x07, 5	; 7
     5b2:	44 98       	cbi	0x08, 4	; 8
     5b4:	45 98       	cbi	0x08, 5	; 8
     5b6:	d2 df       	rcall	.-92     	; 0x55c <twi_init>
     5b8:	d0 93 b8 00 	sts	0x00B8, r29	; 0x8000b8 <__TEXT_REGION_LENGTH__+0x7e00b8>
     5bc:	c0 93 ba 00 	sts	0x00BA, r28	; 0x8000ba <__TEXT_REGION_LENGTH__+0x7e00ba>
     5c0:	df 91       	pop	r29
     5c2:	cf 91       	pop	r28
     5c4:	08 95       	ret

000005c6 <_ZN9DCF77SyncL15_sampleInputPinEv>:
     5c6:	00 b6       	in	r0, 0x30	; 48
     5c8:	05 fe       	sbrs	r0, 5
     5ca:	07 c0       	rjmp	.+14     	; 0x5da <_ZN9DCF77SyncL15_sampleInputPinEv+0x14>
     5cc:	80 91 73 03 	lds	r24, 0x0373	; 0x800373 <FLAG>
     5d0:	87 7f       	andi	r24, 0xF7	; 247
     5d2:	80 93 73 03 	sts	0x0373, r24	; 0x800373 <FLAG>
     5d6:	80 e0       	ldi	r24, 0x00	; 0
     5d8:	08 95       	ret
     5da:	80 91 73 03 	lds	r24, 0x0373	; 0x800373 <FLAG>
     5de:	88 60       	ori	r24, 0x08	; 8
     5e0:	80 93 73 03 	sts	0x0373, r24	; 0x800373 <FLAG>
     5e4:	81 e0       	ldi	r24, 0x01	; 1
     5e6:	08 95       	ret

000005e8 <_ZN7Modules6DS3231L7isValidERKNS0_8DateTimeE>:
     5e8:	fc 01       	movw	r30, r24
     5ea:	80 81       	ld	r24, Z
     5ec:	8c 33       	cpi	r24, 0x3C	; 60
     5ee:	98 f4       	brcc	.+38     	; 0x616 <_ZN7Modules6DS3231L7isValidERKNS0_8DateTimeE+0x2e>
     5f0:	81 81       	ldd	r24, Z+1	; 0x01
     5f2:	88 31       	cpi	r24, 0x18	; 24
     5f4:	80 f4       	brcc	.+32     	; 0x616 <_ZN7Modules6DS3231L7isValidERKNS0_8DateTimeE+0x2e>
     5f6:	82 81       	ldd	r24, Z+2	; 0x02
     5f8:	81 50       	subi	r24, 0x01	; 1
     5fa:	8f 31       	cpi	r24, 0x1F	; 31
     5fc:	60 f4       	brcc	.+24     	; 0x616 <_ZN7Modules6DS3231L7isValidERKNS0_8DateTimeE+0x2e>
     5fe:	83 81       	ldd	r24, Z+3	; 0x03
     600:	81 50       	subi	r24, 0x01	; 1
     602:	8c 30       	cpi	r24, 0x0C	; 12
     604:	40 f4       	brcc	.+16     	; 0x616 <_ZN7Modules6DS3231L7isValidERKNS0_8DateTimeE+0x2e>
     606:	24 81       	ldd	r18, Z+4	; 0x04
     608:	35 81       	ldd	r19, Z+5	; 0x05
     60a:	20 5d       	subi	r18, 0xD0	; 208
     60c:	37 40       	sbci	r19, 0x07	; 7
     60e:	81 e0       	ldi	r24, 0x01	; 1
     610:	24 36       	cpi	r18, 0x64	; 100
     612:	31 05       	cpc	r19, r1
     614:	08 f0       	brcs	.+2      	; 0x618 <_ZN7Modules6DS3231L7isValidERKNS0_8DateTimeE+0x30>
     616:	80 e0       	ldi	r24, 0x00	; 0
     618:	08 95       	ret

0000061a <_ZN7Modules6DS3231L8decToBcdEh>:
     61a:	9d ec       	ldi	r25, 0xCD	; 205
     61c:	89 9f       	mul	r24, r25
     61e:	90 01       	movw	r18, r0
     620:	11 24       	eor	r1, r1
     622:	23 2f       	mov	r18, r19
     624:	33 27       	eor	r19, r19
     626:	26 95       	lsr	r18
     628:	26 95       	lsr	r18
     62a:	26 95       	lsr	r18
     62c:	96 ef       	ldi	r25, 0xF6	; 246
     62e:	29 9f       	mul	r18, r25
     630:	80 0d       	add	r24, r0
     632:	11 24       	eor	r1, r1
     634:	44 e0       	ldi	r20, 0x04	; 4
     636:	22 0f       	add	r18, r18
     638:	33 1f       	adc	r19, r19
     63a:	4a 95       	dec	r20
     63c:	e1 f7       	brne	.-8      	; 0x636 <_ZN7Modules6DS3231L8decToBcdEh+0x1c>
     63e:	82 2b       	or	r24, r18
     640:	08 95       	ret

00000642 <_ZN7Modules6DS3231L8bcdToDecEh>:
     642:	98 2f       	mov	r25, r24
     644:	92 95       	swap	r25
     646:	9f 70       	andi	r25, 0x0F	; 15
     648:	8f 70       	andi	r24, 0x0F	; 15
     64a:	2a e0       	ldi	r18, 0x0A	; 10
     64c:	92 9f       	mul	r25, r18
     64e:	80 0d       	add	r24, r0
     650:	11 24       	eor	r1, r1
     652:	08 95       	ret

00000654 <_ZN8Internal7Binning6bins_tIhhLj60EE18get_quality_factorEv>:
     654:	fc 01       	movw	r30, r24
     656:	3f b7       	in	r19, 0x3f	; 63
     658:	f8 94       	cli
     65a:	96 ad       	ldd	r25, Z+62	; 0x3e
     65c:	85 ad       	ldd	r24, Z+61	; 0x3d
     65e:	89 17       	cp	r24, r25
     660:	18 f0       	brcs	.+6      	; 0x668 <_ZN8Internal7Binning6bins_tIhhLj60EE18get_quality_factorEv+0x14>
     662:	3f bf       	out	0x3f, r19	; 63
     664:	80 e0       	ldi	r24, 0x00	; 0
     666:	08 95       	ret
     668:	29 2f       	mov	r18, r25
     66a:	28 1b       	sub	r18, r24
     66c:	3f bf       	out	0x3f, r19	; 63
     66e:	80 e0       	ldi	r24, 0x00	; 0
     670:	9d 31       	cpi	r25, 0x1D	; 29
     672:	40 f4       	brcc	.+16     	; 0x684 <_ZN8Internal7Binning6bins_tIhhLj60EE18get_quality_factorEv+0x30>
     674:	9d 30       	cpi	r25, 0x0D	; 13
     676:	08 f4       	brcc	.+2      	; 0x67a <_ZN8Internal7Binning6bins_tIhhLj60EE18get_quality_factorEv+0x26>
     678:	45 c0       	rjmp	.+138    	; 0x704 <_ZN8Internal7Binning6bins_tIhhLj60EE18get_quality_factorEv+0xb0>
     67a:	82 2f       	mov	r24, r18
     67c:	86 95       	lsr	r24
     67e:	86 95       	lsr	r24
     680:	08 95       	ret
     682:	83 2f       	mov	r24, r19
     684:	96 95       	lsr	r25
     686:	31 e0       	ldi	r19, 0x01	; 1
     688:	38 0f       	add	r19, r24
     68a:	91 11       	cpse	r25, r1
     68c:	fa cf       	rjmp	.-12     	; 0x682 <_ZN8Internal7Binning6bins_tIhhLj60EE18get_quality_factorEv+0x2e>
     68e:	8d 30       	cpi	r24, 0x0D	; 13
     690:	68 f0       	brcs	.+26     	; 0x6ac <_ZN8Internal7Binning6bins_tIhhLj60EE18get_quality_factorEv+0x58>
     692:	8d 30       	cpi	r24, 0x0D	; 13
     694:	29 f1       	breq	.+74     	; 0x6e0 <_ZN8Internal7Binning6bins_tIhhLj60EE18get_quality_factorEv+0x8c>
     696:	8e 30       	cpi	r24, 0x0E	; 14
     698:	31 f1       	breq	.+76     	; 0x6e6 <_ZN8Internal7Binning6bins_tIhhLj60EE18get_quality_factorEv+0x92>
     69a:	81 e1       	ldi	r24, 0x11	; 17
     69c:	90 e0       	ldi	r25, 0x00	; 0
     69e:	28 9f       	mul	r18, r24
     6a0:	a0 01       	movw	r20, r0
     6a2:	29 9f       	mul	r18, r25
     6a4:	50 0d       	add	r21, r0
     6a6:	11 24       	eor	r1, r1
     6a8:	85 2f       	mov	r24, r21
     6aa:	08 95       	ret
     6ac:	89 30       	cpi	r24, 0x09	; 9
     6ae:	60 f0       	brcs	.+24     	; 0x6c8 <_ZN8Internal7Binning6bins_tIhhLj60EE18get_quality_factorEv+0x74>
     6b0:	8b 30       	cpi	r24, 0x0B	; 11
     6b2:	28 f0       	brcs	.+10     	; 0x6be <_ZN8Internal7Binning6bins_tIhhLj60EE18get_quality_factorEv+0x6a>
     6b4:	8c 30       	cpi	r24, 0x0C	; 12
     6b6:	d1 f4       	brne	.+52     	; 0x6ec <_ZN8Internal7Binning6bins_tIhhLj60EE18get_quality_factorEv+0x98>
     6b8:	85 e1       	ldi	r24, 0x15	; 21
     6ba:	90 e0       	ldi	r25, 0x00	; 0
     6bc:	f0 cf       	rjmp	.-32     	; 0x69e <_ZN8Internal7Binning6bins_tIhhLj60EE18get_quality_factorEv+0x4a>
     6be:	8a 30       	cpi	r24, 0x0A	; 10
     6c0:	c1 f4       	brne	.+48     	; 0x6f2 <_ZN8Internal7Binning6bins_tIhhLj60EE18get_quality_factorEv+0x9e>
     6c2:	89 e1       	ldi	r24, 0x19	; 25
     6c4:	90 e0       	ldi	r25, 0x00	; 0
     6c6:	eb cf       	rjmp	.-42     	; 0x69e <_ZN8Internal7Binning6bins_tIhhLj60EE18get_quality_factorEv+0x4a>
     6c8:	87 30       	cpi	r24, 0x07	; 7
     6ca:	28 f0       	brcs	.+10     	; 0x6d6 <_ZN8Internal7Binning6bins_tIhhLj60EE18get_quality_factorEv+0x82>
     6cc:	88 30       	cpi	r24, 0x08	; 8
     6ce:	a1 f4       	brne	.+40     	; 0x6f8 <_ZN8Internal7Binning6bins_tIhhLj60EE18get_quality_factorEv+0xa4>
     6d0:	80 e2       	ldi	r24, 0x20	; 32
     6d2:	90 e0       	ldi	r25, 0x00	; 0
     6d4:	e4 cf       	rjmp	.-56     	; 0x69e <_ZN8Internal7Binning6bins_tIhhLj60EE18get_quality_factorEv+0x4a>
     6d6:	86 30       	cpi	r24, 0x06	; 6
     6d8:	91 f4       	brne	.+36     	; 0x6fe <_ZN8Internal7Binning6bins_tIhhLj60EE18get_quality_factorEv+0xaa>
     6da:	8a e2       	ldi	r24, 0x2A	; 42
     6dc:	90 e0       	ldi	r25, 0x00	; 0
     6de:	df cf       	rjmp	.-66     	; 0x69e <_ZN8Internal7Binning6bins_tIhhLj60EE18get_quality_factorEv+0x4a>
     6e0:	83 e1       	ldi	r24, 0x13	; 19
     6e2:	90 e0       	ldi	r25, 0x00	; 0
     6e4:	dc cf       	rjmp	.-72     	; 0x69e <_ZN8Internal7Binning6bins_tIhhLj60EE18get_quality_factorEv+0x4a>
     6e6:	82 e1       	ldi	r24, 0x12	; 18
     6e8:	90 e0       	ldi	r25, 0x00	; 0
     6ea:	d9 cf       	rjmp	.-78     	; 0x69e <_ZN8Internal7Binning6bins_tIhhLj60EE18get_quality_factorEv+0x4a>
     6ec:	87 e1       	ldi	r24, 0x17	; 23
     6ee:	90 e0       	ldi	r25, 0x00	; 0
     6f0:	d6 cf       	rjmp	.-84     	; 0x69e <_ZN8Internal7Binning6bins_tIhhLj60EE18get_quality_factorEv+0x4a>
     6f2:	8c e1       	ldi	r24, 0x1C	; 28
     6f4:	90 e0       	ldi	r25, 0x00	; 0
     6f6:	d3 cf       	rjmp	.-90     	; 0x69e <_ZN8Internal7Binning6bins_tIhhLj60EE18get_quality_factorEv+0x4a>
     6f8:	84 e2       	ldi	r24, 0x24	; 36
     6fa:	90 e0       	ldi	r25, 0x00	; 0
     6fc:	d0 cf       	rjmp	.-96     	; 0x69e <_ZN8Internal7Binning6bins_tIhhLj60EE18get_quality_factorEv+0x4a>
     6fe:	83 e3       	ldi	r24, 0x33	; 51
     700:	90 e0       	ldi	r25, 0x00	; 0
     702:	cd cf       	rjmp	.-102    	; 0x69e <_ZN8Internal7Binning6bins_tIhhLj60EE18get_quality_factorEv+0x4a>
     704:	99 30       	cpi	r25, 0x09	; 9
     706:	48 f0       	brcs	.+18     	; 0x71a <_ZN8Internal7Binning6bins_tIhhLj60EE18get_quality_factorEv+0xc6>
     708:	2b 30       	cpi	r18, 0x0B	; 11
     70a:	a0 f4       	brcc	.+40     	; 0x734 <_ZN8Internal7Binning6bins_tIhhLj60EE18get_quality_factorEv+0xe0>
     70c:	27 30       	cpi	r18, 0x07	; 7
     70e:	a0 f4       	brcc	.+40     	; 0x738 <_ZN8Internal7Binning6bins_tIhhLj60EE18get_quality_factorEv+0xe4>
     710:	81 e0       	ldi	r24, 0x01	; 1
     712:	24 30       	cpi	r18, 0x04	; 4
     714:	08 f4       	brcc	.+2      	; 0x718 <_ZN8Internal7Binning6bins_tIhhLj60EE18get_quality_factorEv+0xc4>
     716:	a6 cf       	rjmp	.-180    	; 0x664 <_ZN8Internal7Binning6bins_tIhhLj60EE18get_quality_factorEv+0x10>
     718:	08 95       	ret
     71a:	95 30       	cpi	r25, 0x05	; 5
     71c:	30 f0       	brcs	.+12     	; 0x72a <_ZN8Internal7Binning6bins_tIhhLj60EE18get_quality_factorEv+0xd6>
     71e:	26 30       	cpi	r18, 0x06	; 6
     720:	58 f4       	brcc	.+22     	; 0x738 <_ZN8Internal7Binning6bins_tIhhLj60EE18get_quality_factorEv+0xe4>
     722:	81 e0       	ldi	r24, 0x01	; 1
     724:	23 30       	cpi	r18, 0x03	; 3
     726:	c0 f7       	brcc	.-16     	; 0x718 <_ZN8Internal7Binning6bins_tIhhLj60EE18get_quality_factorEv+0xc4>
     728:	9d cf       	rjmp	.-198    	; 0x664 <_ZN8Internal7Binning6bins_tIhhLj60EE18get_quality_factorEv+0x10>
     72a:	93 30       	cpi	r25, 0x03	; 3
     72c:	d0 f7       	brcc	.-12     	; 0x722 <_ZN8Internal7Binning6bins_tIhhLj60EE18get_quality_factorEv+0xce>
     72e:	82 2f       	mov	r24, r18
     730:	86 95       	lsr	r24
     732:	08 95       	ret
     734:	83 e0       	ldi	r24, 0x03	; 3
     736:	08 95       	ret
     738:	82 e0       	ldi	r24, 0x02	; 2
     73a:	ee cf       	rjmp	.-36     	; 0x718 <_ZN8Internal7Binning6bins_tIhhLj60EE18get_quality_factorEv+0xc4>

0000073c <_ZN8Internal7Binning5scoreIhhLh1EEEvRT_T0_b>:
     73c:	fc 01       	movw	r30, r24
     73e:	90 81       	ld	r25, Z
     740:	44 23       	and	r20, r20
     742:	19 f0       	breq	.+6      	; 0x74a <_ZN8Internal7Binning5scoreIhhLh1EEEvRT_T0_b+0xe>
     744:	69 0f       	add	r22, r25
     746:	60 83       	st	Z, r22
     748:	08 95       	ret
     74a:	96 1b       	sub	r25, r22
     74c:	9f 5f       	subi	r25, 0xFF	; 255
     74e:	90 83       	st	Z, r25
     750:	08 95       	ret

00000752 <_ZN8Internal7Binning7DecoderIhLj60EE17compute_max_indexEv>:
     752:	fc 01       	movw	r30, r24
     754:	15 ae       	std	Z+61, r1	; 0x3d
     756:	16 ae       	std	Z+62, r1	; 0x3e
     758:	8d e3       	ldi	r24, 0x3D	; 61
     75a:	87 af       	std	Z+63, r24	; 0x3f
     75c:	df 01       	movw	r26, r30
     75e:	80 e0       	ldi	r24, 0x00	; 0
     760:	9d 91       	ld	r25, X+
     762:	26 ad       	ldd	r18, Z+62	; 0x3e
     764:	92 17       	cp	r25, r18
     766:	38 f0       	brcs	.+14     	; 0x776 <_ZN8Internal7Binning7DecoderIhLj60EE17compute_max_indexEv+0x24>
     768:	25 af       	std	Z+61, r18	; 0x3d
     76a:	96 af       	std	Z+62, r25	; 0x3e
     76c:	87 af       	std	Z+63, r24	; 0x3f
     76e:	8f 5f       	subi	r24, 0xFF	; 255
     770:	8c 33       	cpi	r24, 0x3C	; 60
     772:	b1 f7       	brne	.-20     	; 0x760 <_ZN8Internal7Binning7DecoderIhLj60EE17compute_max_indexEv+0xe>
     774:	08 95       	ret
     776:	25 ad       	ldd	r18, Z+61	; 0x3d
     778:	29 17       	cp	r18, r25
     77a:	c8 f7       	brcc	.-14     	; 0x76e <_ZN8Internal7Binning7DecoderIhLj60EE17compute_max_indexEv+0x1c>
     77c:	95 af       	std	Z+61, r25	; 0x3d
     77e:	f7 cf       	rjmp	.-18     	; 0x76e <_ZN8Internal7Binning7DecoderIhLj60EE17compute_max_indexEv+0x1c>

00000780 <_ZN8Internal7Binning6bins_tIhhLj60EE5setupEv>:
     780:	fc 01       	movw	r30, r24
     782:	dc 01       	movw	r26, r24
     784:	cc 96       	adiw	r24, 0x3c	; 60
     786:	1d 92       	st	X+, r1
     788:	a8 17       	cp	r26, r24
     78a:	b9 07       	cpc	r27, r25
     78c:	e1 f7       	brne	.-8      	; 0x786 <_ZN8Internal7Binning6bins_tIhhLj60EE5setupEv+0x6>
     78e:	14 ae       	std	Z+60, r1	; 0x3c
     790:	16 ae       	std	Z+62, r1	; 0x3e
     792:	8d e3       	ldi	r24, 0x3D	; 61
     794:	87 af       	std	Z+63, r24	; 0x3f
     796:	15 ae       	std	Z+61, r1	; 0x3d
     798:	08 95       	ret

0000079a <_ZN8Internal22DCF77_Clock_ControllerI13ConfigurationNS_23DCF77_Frequency_ControlEE24phase_lost_event_handlerEv>:
     79a:	8c e2       	ldi	r24, 0x2C	; 44
     79c:	91 e0       	ldi	r25, 0x01	; 1
     79e:	90 93 dd 05 	sts	0x05DD, r25	; 0x8005dd <_ZN8Internal22DCF77_Clock_ControllerI13ConfigurationNS_23DCF77_Frequency_ControlEE11DemodulatorE+0xd3>
     7a2:	80 93 dc 05 	sts	0x05DC, r24	; 0x8005dc <_ZN8Internal22DCF77_Clock_ControllerI13ConfigurationNS_23DCF77_Frequency_ControlEE11DemodulatorE+0xd2>
     7a6:	87 eb       	ldi	r24, 0xB7	; 183
     7a8:	93 e0       	ldi	r25, 0x03	; 3
     7aa:	ea df       	rcall	.-44     	; 0x780 <_ZN8Internal7Binning6bins_tIhhLj60EE5setupEv>
     7ac:	8f ef       	ldi	r24, 0xFF	; 255
     7ae:	80 93 fd 03 	sts	0x03FD, r24	; 0x8003fd <_ZN8Internal22DCF77_Clock_ControllerI13ConfigurationNS_23DCF77_Frequency_ControlEE14Second_DecoderE+0x46>
     7b2:	80 93 fe 03 	sts	0x03FE, r24	; 0x8003fe <_ZN8Internal22DCF77_Clock_ControllerI13ConfigurationNS_23DCF77_Frequency_ControlEE14Second_DecoderE+0x47>
     7b6:	87 e7       	ldi	r24, 0x77	; 119
     7b8:	93 e0       	ldi	r25, 0x03	; 3
     7ba:	e2 df       	rcall	.-60     	; 0x780 <_ZN8Internal7Binning6bins_tIhhLj60EE5setupEv>
     7bc:	ef ef       	ldi	r30, 0xFF	; 255
     7be:	f3 e0       	ldi	r31, 0x03	; 3
     7c0:	87 e1       	ldi	r24, 0x17	; 23
     7c2:	94 e0       	ldi	r25, 0x04	; 4
     7c4:	11 92       	st	Z+, r1
     7c6:	8e 17       	cp	r24, r30
     7c8:	9f 07       	cpc	r25, r31
     7ca:	e1 f7       	brne	.-8      	; 0x7c4 <_ZN8Internal22DCF77_Clock_ControllerI13ConfigurationNS_23DCF77_Frequency_ControlEE24phase_lost_event_handlerEv+0x2a>
     7cc:	10 92 17 04 	sts	0x0417, r1	; 0x800417 <_ZN8Internal22DCF77_Clock_ControllerI13ConfigurationNS_23DCF77_Frequency_ControlEE12Hour_DecoderE+0x18>
     7d0:	10 92 19 04 	sts	0x0419, r1	; 0x800419 <_ZN8Internal22DCF77_Clock_ControllerI13ConfigurationNS_23DCF77_Frequency_ControlEE12Hour_DecoderE+0x1a>
     7d4:	89 e1       	ldi	r24, 0x19	; 25
     7d6:	80 93 1a 04 	sts	0x041A, r24	; 0x80041a <_ZN8Internal22DCF77_Clock_ControllerI13ConfigurationNS_23DCF77_Frequency_ControlEE12Hour_DecoderE+0x1b>
     7da:	10 92 18 04 	sts	0x0418, r1	; 0x800418 <_ZN8Internal22DCF77_Clock_ControllerI13ConfigurationNS_23DCF77_Frequency_ControlEE12Hour_DecoderE+0x19>
     7de:	e6 e2       	ldi	r30, 0x26	; 38
     7e0:	f4 e0       	ldi	r31, 0x04	; 4
     7e2:	11 92       	st	Z+, r1
     7e4:	84 e0       	ldi	r24, 0x04	; 4
     7e6:	e5 34       	cpi	r30, 0x45	; 69
     7e8:	f8 07       	cpc	r31, r24
     7ea:	d9 f7       	brne	.-10     	; 0x7e2 <_ZN8Internal22DCF77_Clock_ControllerI13ConfigurationNS_23DCF77_Frequency_ControlEE24phase_lost_event_handlerEv+0x48>
     7ec:	10 92 45 04 	sts	0x0445, r1	; 0x800445 <_ZN8Internal22DCF77_Clock_ControllerI13ConfigurationNS_23DCF77_Frequency_ControlEE11Day_DecoderE+0x1f>
     7f0:	10 92 47 04 	sts	0x0447, r1	; 0x800447 <_ZN8Internal22DCF77_Clock_ControllerI13ConfigurationNS_23DCF77_Frequency_ControlEE11Day_DecoderE+0x21>
     7f4:	80 e2       	ldi	r24, 0x20	; 32
     7f6:	80 93 48 04 	sts	0x0448, r24	; 0x800448 <_ZN8Internal22DCF77_Clock_ControllerI13ConfigurationNS_23DCF77_Frequency_ControlEE11Day_DecoderE+0x22>
     7fa:	10 92 46 04 	sts	0x0446, r1	; 0x800446 <_ZN8Internal22DCF77_Clock_ControllerI13ConfigurationNS_23DCF77_Frequency_ControlEE11Day_DecoderE+0x20>
     7fe:	10 92 1b 04 	sts	0x041B, r1	; 0x80041b <_ZN8Internal22DCF77_Clock_ControllerI13ConfigurationNS_23DCF77_Frequency_ControlEE15Weekday_DecoderE>
     802:	10 92 1c 04 	sts	0x041C, r1	; 0x80041c <_ZN8Internal22DCF77_Clock_ControllerI13ConfigurationNS_23DCF77_Frequency_ControlEE15Weekday_DecoderE+0x1>
     806:	10 92 1d 04 	sts	0x041D, r1	; 0x80041d <_ZN8Internal22DCF77_Clock_ControllerI13ConfigurationNS_23DCF77_Frequency_ControlEE15Weekday_DecoderE+0x2>
     80a:	10 92 1e 04 	sts	0x041E, r1	; 0x80041e <_ZN8Internal22DCF77_Clock_ControllerI13ConfigurationNS_23DCF77_Frequency_ControlEE15Weekday_DecoderE+0x3>
     80e:	10 92 1f 04 	sts	0x041F, r1	; 0x80041f <_ZN8Internal22DCF77_Clock_ControllerI13ConfigurationNS_23DCF77_Frequency_ControlEE15Weekday_DecoderE+0x4>
     812:	10 92 20 04 	sts	0x0420, r1	; 0x800420 <_ZN8Internal22DCF77_Clock_ControllerI13ConfigurationNS_23DCF77_Frequency_ControlEE15Weekday_DecoderE+0x5>
     816:	10 92 21 04 	sts	0x0421, r1	; 0x800421 <_ZN8Internal22DCF77_Clock_ControllerI13ConfigurationNS_23DCF77_Frequency_ControlEE15Weekday_DecoderE+0x6>
     81a:	10 92 22 04 	sts	0x0422, r1	; 0x800422 <_ZN8Internal22DCF77_Clock_ControllerI13ConfigurationNS_23DCF77_Frequency_ControlEE15Weekday_DecoderE+0x7>
     81e:	10 92 24 04 	sts	0x0424, r1	; 0x800424 <_ZN8Internal22DCF77_Clock_ControllerI13ConfigurationNS_23DCF77_Frequency_ControlEE15Weekday_DecoderE+0x9>
     822:	88 e0       	ldi	r24, 0x08	; 8
     824:	80 93 25 04 	sts	0x0425, r24	; 0x800425 <_ZN8Internal22DCF77_Clock_ControllerI13ConfigurationNS_23DCF77_Frequency_ControlEE15Weekday_DecoderE+0xa>
     828:	10 92 23 04 	sts	0x0423, r1	; 0x800423 <_ZN8Internal22DCF77_Clock_ControllerI13ConfigurationNS_23DCF77_Frequency_ControlEE15Weekday_DecoderE+0x8>
     82c:	e9 e4       	ldi	r30, 0x49	; 73
     82e:	f4 e0       	ldi	r31, 0x04	; 4
     830:	85 e5       	ldi	r24, 0x55	; 85
     832:	94 e0       	ldi	r25, 0x04	; 4
     834:	11 92       	st	Z+, r1
     836:	8e 17       	cp	r24, r30
     838:	9f 07       	cpc	r25, r31
     83a:	e1 f7       	brne	.-8      	; 0x834 <_ZN8Internal22DCF77_Clock_ControllerI13ConfigurationNS_23DCF77_Frequency_ControlEE24phase_lost_event_handlerEv+0x9a>
     83c:	10 92 55 04 	sts	0x0455, r1	; 0x800455 <_ZN8Internal22DCF77_Clock_ControllerI13ConfigurationNS_23DCF77_Frequency_ControlEE13Month_DecoderE+0xc>
     840:	10 92 57 04 	sts	0x0457, r1	; 0x800457 <_ZN8Internal22DCF77_Clock_ControllerI13ConfigurationNS_23DCF77_Frequency_ControlEE13Month_DecoderE+0xe>
     844:	8d e0       	ldi	r24, 0x0D	; 13
     846:	80 93 58 04 	sts	0x0458, r24	; 0x800458 <_ZN8Internal22DCF77_Clock_ControllerI13ConfigurationNS_23DCF77_Frequency_ControlEE13Month_DecoderE+0xf>
     84a:	10 92 56 04 	sts	0x0456, r1	; 0x800456 <_ZN8Internal22DCF77_Clock_ControllerI13ConfigurationNS_23DCF77_Frequency_ControlEE13Month_DecoderE+0xd>
     84e:	a5 cc       	rjmp	.-1718   	; 0x19a <_ZN8Internal18DCF77_Year_Decoder5setupEv.constprop.67>

00000850 <_ZN8Internal7Binning6bins_tIhhLj10EE18get_quality_factorEv>:
     850:	fc 01       	movw	r30, r24
     852:	3f b7       	in	r19, 0x3f	; 63
     854:	f8 94       	cli
     856:	94 85       	ldd	r25, Z+12	; 0x0c
     858:	83 85       	ldd	r24, Z+11	; 0x0b
     85a:	89 17       	cp	r24, r25
     85c:	18 f0       	brcs	.+6      	; 0x864 <_ZN8Internal7Binning6bins_tIhhLj10EE18get_quality_factorEv+0x14>
     85e:	3f bf       	out	0x3f, r19	; 63
     860:	80 e0       	ldi	r24, 0x00	; 0
     862:	08 95       	ret
     864:	29 2f       	mov	r18, r25
     866:	28 1b       	sub	r18, r24
     868:	3f bf       	out	0x3f, r19	; 63
     86a:	80 e0       	ldi	r24, 0x00	; 0
     86c:	9d 31       	cpi	r25, 0x1D	; 29
     86e:	40 f4       	brcc	.+16     	; 0x880 <_ZN8Internal7Binning6bins_tIhhLj10EE18get_quality_factorEv+0x30>
     870:	9d 30       	cpi	r25, 0x0D	; 13
     872:	08 f4       	brcc	.+2      	; 0x876 <_ZN8Internal7Binning6bins_tIhhLj10EE18get_quality_factorEv+0x26>
     874:	45 c0       	rjmp	.+138    	; 0x900 <__stack+0x1>
     876:	82 2f       	mov	r24, r18
     878:	86 95       	lsr	r24
     87a:	86 95       	lsr	r24
     87c:	08 95       	ret
     87e:	83 2f       	mov	r24, r19
     880:	96 95       	lsr	r25
     882:	31 e0       	ldi	r19, 0x01	; 1
     884:	38 0f       	add	r19, r24
     886:	91 11       	cpse	r25, r1
     888:	fa cf       	rjmp	.-12     	; 0x87e <_ZN8Internal7Binning6bins_tIhhLj10EE18get_quality_factorEv+0x2e>
     88a:	8d 30       	cpi	r24, 0x0D	; 13
     88c:	68 f0       	brcs	.+26     	; 0x8a8 <_ZN8Internal7Binning6bins_tIhhLj10EE18get_quality_factorEv+0x58>
     88e:	8d 30       	cpi	r24, 0x0D	; 13
     890:	29 f1       	breq	.+74     	; 0x8dc <_ZN8Internal7Binning6bins_tIhhLj10EE18get_quality_factorEv+0x8c>
     892:	8e 30       	cpi	r24, 0x0E	; 14
     894:	31 f1       	breq	.+76     	; 0x8e2 <_ZN8Internal7Binning6bins_tIhhLj10EE18get_quality_factorEv+0x92>
     896:	81 e1       	ldi	r24, 0x11	; 17
     898:	90 e0       	ldi	r25, 0x00	; 0
     89a:	28 9f       	mul	r18, r24
     89c:	a0 01       	movw	r20, r0
     89e:	29 9f       	mul	r18, r25
     8a0:	50 0d       	add	r21, r0
     8a2:	11 24       	eor	r1, r1
     8a4:	85 2f       	mov	r24, r21
     8a6:	08 95       	ret
     8a8:	89 30       	cpi	r24, 0x09	; 9
     8aa:	60 f0       	brcs	.+24     	; 0x8c4 <_ZN8Internal7Binning6bins_tIhhLj10EE18get_quality_factorEv+0x74>
     8ac:	8b 30       	cpi	r24, 0x0B	; 11
     8ae:	28 f0       	brcs	.+10     	; 0x8ba <_ZN8Internal7Binning6bins_tIhhLj10EE18get_quality_factorEv+0x6a>
     8b0:	8c 30       	cpi	r24, 0x0C	; 12
     8b2:	d1 f4       	brne	.+52     	; 0x8e8 <_ZN8Internal7Binning6bins_tIhhLj10EE18get_quality_factorEv+0x98>
     8b4:	85 e1       	ldi	r24, 0x15	; 21
     8b6:	90 e0       	ldi	r25, 0x00	; 0
     8b8:	f0 cf       	rjmp	.-32     	; 0x89a <_ZN8Internal7Binning6bins_tIhhLj10EE18get_quality_factorEv+0x4a>
     8ba:	8a 30       	cpi	r24, 0x0A	; 10
     8bc:	c1 f4       	brne	.+48     	; 0x8ee <_ZN8Internal7Binning6bins_tIhhLj10EE18get_quality_factorEv+0x9e>
     8be:	89 e1       	ldi	r24, 0x19	; 25
     8c0:	90 e0       	ldi	r25, 0x00	; 0
     8c2:	eb cf       	rjmp	.-42     	; 0x89a <_ZN8Internal7Binning6bins_tIhhLj10EE18get_quality_factorEv+0x4a>
     8c4:	87 30       	cpi	r24, 0x07	; 7
     8c6:	28 f0       	brcs	.+10     	; 0x8d2 <_ZN8Internal7Binning6bins_tIhhLj10EE18get_quality_factorEv+0x82>
     8c8:	88 30       	cpi	r24, 0x08	; 8
     8ca:	a1 f4       	brne	.+40     	; 0x8f4 <_ZN8Internal7Binning6bins_tIhhLj10EE18get_quality_factorEv+0xa4>
     8cc:	80 e2       	ldi	r24, 0x20	; 32
     8ce:	90 e0       	ldi	r25, 0x00	; 0
     8d0:	e4 cf       	rjmp	.-56     	; 0x89a <_ZN8Internal7Binning6bins_tIhhLj10EE18get_quality_factorEv+0x4a>
     8d2:	86 30       	cpi	r24, 0x06	; 6
     8d4:	91 f4       	brne	.+36     	; 0x8fa <_ZN8Internal7Binning6bins_tIhhLj10EE18get_quality_factorEv+0xaa>
     8d6:	8a e2       	ldi	r24, 0x2A	; 42
     8d8:	90 e0       	ldi	r25, 0x00	; 0
     8da:	df cf       	rjmp	.-66     	; 0x89a <_ZN8Internal7Binning6bins_tIhhLj10EE18get_quality_factorEv+0x4a>
     8dc:	83 e1       	ldi	r24, 0x13	; 19
     8de:	90 e0       	ldi	r25, 0x00	; 0
     8e0:	dc cf       	rjmp	.-72     	; 0x89a <_ZN8Internal7Binning6bins_tIhhLj10EE18get_quality_factorEv+0x4a>
     8e2:	82 e1       	ldi	r24, 0x12	; 18
     8e4:	90 e0       	ldi	r25, 0x00	; 0
     8e6:	d9 cf       	rjmp	.-78     	; 0x89a <_ZN8Internal7Binning6bins_tIhhLj10EE18get_quality_factorEv+0x4a>
     8e8:	87 e1       	ldi	r24, 0x17	; 23
     8ea:	90 e0       	ldi	r25, 0x00	; 0
     8ec:	d6 cf       	rjmp	.-84     	; 0x89a <_ZN8Internal7Binning6bins_tIhhLj10EE18get_quality_factorEv+0x4a>
     8ee:	8c e1       	ldi	r24, 0x1C	; 28
     8f0:	90 e0       	ldi	r25, 0x00	; 0
     8f2:	d3 cf       	rjmp	.-90     	; 0x89a <_ZN8Internal7Binning6bins_tIhhLj10EE18get_quality_factorEv+0x4a>
     8f4:	84 e2       	ldi	r24, 0x24	; 36
     8f6:	90 e0       	ldi	r25, 0x00	; 0
     8f8:	d0 cf       	rjmp	.-96     	; 0x89a <_ZN8Internal7Binning6bins_tIhhLj10EE18get_quality_factorEv+0x4a>
     8fa:	83 e3       	ldi	r24, 0x33	; 51
     8fc:	90 e0       	ldi	r25, 0x00	; 0
     8fe:	cd cf       	rjmp	.-102    	; 0x89a <_ZN8Internal7Binning6bins_tIhhLj10EE18get_quality_factorEv+0x4a>
     900:	99 30       	cpi	r25, 0x09	; 9
     902:	48 f0       	brcs	.+18     	; 0x916 <__stack+0x17>
     904:	2b 30       	cpi	r18, 0x0B	; 11
     906:	a0 f4       	brcc	.+40     	; 0x930 <__stack+0x31>
     908:	27 30       	cpi	r18, 0x07	; 7
     90a:	a0 f4       	brcc	.+40     	; 0x934 <__stack+0x35>
     90c:	81 e0       	ldi	r24, 0x01	; 1
     90e:	24 30       	cpi	r18, 0x04	; 4
     910:	08 f4       	brcc	.+2      	; 0x914 <__stack+0x15>
     912:	a6 cf       	rjmp	.-180    	; 0x860 <_ZN8Internal7Binning6bins_tIhhLj10EE18get_quality_factorEv+0x10>
     914:	08 95       	ret
     916:	95 30       	cpi	r25, 0x05	; 5
     918:	30 f0       	brcs	.+12     	; 0x926 <__stack+0x27>
     91a:	26 30       	cpi	r18, 0x06	; 6
     91c:	58 f4       	brcc	.+22     	; 0x934 <__stack+0x35>
     91e:	81 e0       	ldi	r24, 0x01	; 1
     920:	23 30       	cpi	r18, 0x03	; 3
     922:	c0 f7       	brcc	.-16     	; 0x914 <__stack+0x15>
     924:	9d cf       	rjmp	.-198    	; 0x860 <_ZN8Internal7Binning6bins_tIhhLj10EE18get_quality_factorEv+0x10>
     926:	93 30       	cpi	r25, 0x03	; 3
     928:	d0 f7       	brcc	.-12     	; 0x91e <__stack+0x1f>
     92a:	82 2f       	mov	r24, r18
     92c:	86 95       	lsr	r24
     92e:	08 95       	ret
     930:	83 e0       	ldi	r24, 0x03	; 3
     932:	08 95       	ret
     934:	82 e0       	ldi	r24, 0x02	; 2
     936:	ee cf       	rjmp	.-36     	; 0x914 <__stack+0x15>

00000938 <_ZN8Internal23Generic_1_kHz_Generator13zero_providerEv>:
     938:	80 e0       	ldi	r24, 0x00	; 0
     93a:	08 95       	ret

0000093c <_ZNK8Internal13DCF77_Encoder28verify_leap_second_scheduledEb>:
     93c:	fc 01       	movw	r30, r24
     93e:	82 81       	ldd	r24, Z+2	; 0x02
     940:	90 e0       	ldi	r25, 0x00	; 0
     942:	81 30       	cpi	r24, 0x01	; 1
     944:	39 f4       	brne	.+14     	; 0x954 <_ZNK8Internal13DCF77_Encoder28verify_leap_second_scheduledEb+0x18>
     946:	91 e0       	ldi	r25, 0x01	; 1
     948:	61 11       	cpse	r22, r1
     94a:	04 c0       	rjmp	.+8      	; 0x954 <_ZNK8Internal13DCF77_Encoder28verify_leap_second_scheduledEb+0x18>
     94c:	97 81       	ldd	r25, Z+7	; 0x07
     94e:	93 fb       	bst	r25, 3
     950:	99 27       	eor	r25, r25
     952:	90 f9       	bld	r25, 0
     954:	81 81       	ldd	r24, Z+1	; 0x01
     956:	81 30       	cpi	r24, 0x01	; 1
     958:	81 f4       	brne	.+32     	; 0x97a <_ZNK8Internal13DCF77_Encoder28verify_leap_second_scheduledEb+0x3e>
     95a:	84 81       	ldd	r24, Z+4	; 0x04
     95c:	81 11       	cpse	r24, r1
     95e:	06 c0       	rjmp	.+12     	; 0x96c <_ZNK8Internal13DCF77_Encoder28verify_leap_second_scheduledEb+0x30>
     960:	81 e0       	ldi	r24, 0x01	; 1
     962:	25 81       	ldd	r18, Z+5	; 0x05
     964:	21 11       	cpse	r18, r1
     966:	07 c0       	rjmp	.+14     	; 0x976 <_ZNK8Internal13DCF77_Encoder28verify_leap_second_scheduledEb+0x3a>
     968:	80 e0       	ldi	r24, 0x00	; 0
     96a:	05 c0       	rjmp	.+10     	; 0x976 <_ZNK8Internal13DCF77_Encoder28verify_leap_second_scheduledEb+0x3a>
     96c:	81 30       	cpi	r24, 0x01	; 1
     96e:	e1 f7       	brne	.-8      	; 0x968 <_ZNK8Internal13DCF77_Encoder28verify_leap_second_scheduledEb+0x2c>
     970:	25 81       	ldd	r18, Z+5	; 0x05
     972:	21 11       	cpse	r18, r1
     974:	f9 cf       	rjmp	.-14     	; 0x968 <_ZNK8Internal13DCF77_Encoder28verify_leap_second_scheduledEb+0x2c>
     976:	89 23       	and	r24, r25
     978:	08 95       	ret
     97a:	87 30       	cpi	r24, 0x07	; 7
     97c:	21 f0       	breq	.+8      	; 0x986 <_ZNK8Internal13DCF77_Encoder28verify_leap_second_scheduledEb+0x4a>
     97e:	84 30       	cpi	r24, 0x04	; 4
     980:	11 f0       	breq	.+4      	; 0x986 <_ZNK8Internal13DCF77_Encoder28verify_leap_second_scheduledEb+0x4a>
     982:	80 31       	cpi	r24, 0x10	; 16
     984:	39 f4       	brne	.+14     	; 0x994 <_ZNK8Internal13DCF77_Encoder28verify_leap_second_scheduledEb+0x58>
     986:	84 81       	ldd	r24, Z+4	; 0x04
     988:	81 30       	cpi	r24, 0x01	; 1
     98a:	59 f3       	breq	.-42     	; 0x962 <_ZNK8Internal13DCF77_Encoder28verify_leap_second_scheduledEb+0x26>
     98c:	82 30       	cpi	r24, 0x02	; 2
     98e:	61 f7       	brne	.-40     	; 0x968 <_ZNK8Internal13DCF77_Encoder28verify_leap_second_scheduledEb+0x2c>
     990:	81 e0       	ldi	r24, 0x01	; 1
     992:	ee cf       	rjmp	.-36     	; 0x970 <_ZNK8Internal13DCF77_Encoder28verify_leap_second_scheduledEb+0x34>
     994:	80 e0       	ldi	r24, 0x00	; 0
     996:	08 95       	ret

00000998 <_ZNK8Internal13DCF77_Encoder11get_weekdayEv>:
     998:	fc 01       	movw	r30, r24
     99a:	62 81       	ldd	r22, Z+2	; 0x02
     99c:	62 33       	cpi	r22, 0x32	; 50
     99e:	08 f0       	brcs	.+2      	; 0x9a2 <_ZNK8Internal13DCF77_Encoder11get_weekdayEv+0xa>
     9a0:	49 c0       	rjmp	.+146    	; 0xa34 <_ZNK8Internal13DCF77_Encoder11get_weekdayEv+0x9c>
     9a2:	91 81       	ldd	r25, Z+1	; 0x01
     9a4:	93 31       	cpi	r25, 0x13	; 19
     9a6:	08 f0       	brcs	.+2      	; 0x9aa <_ZNK8Internal13DCF77_Encoder11get_weekdayEv+0x12>
     9a8:	45 c0       	rjmp	.+138    	; 0xa34 <_ZNK8Internal13DCF77_Encoder11get_weekdayEv+0x9c>
     9aa:	80 81       	ld	r24, Z
     9ac:	8a 39       	cpi	r24, 0x9A	; 154
     9ae:	08 f0       	brcs	.+2      	; 0x9b2 <_ZNK8Internal13DCF77_Encoder11get_weekdayEv+0x1a>
     9b0:	41 c0       	rjmp	.+130    	; 0xa34 <_ZNK8Internal13DCF77_Encoder11get_weekdayEv+0x9c>
     9b2:	86 2f       	mov	r24, r22
     9b4:	82 95       	swap	r24
     9b6:	8f 70       	andi	r24, 0x0F	; 15
     9b8:	2a e0       	ldi	r18, 0x0A	; 10
     9ba:	6f 70       	andi	r22, 0x0F	; 15
     9bc:	36 2f       	mov	r19, r22
     9be:	82 9f       	mul	r24, r18
     9c0:	30 0d       	add	r19, r0
     9c2:	11 24       	eor	r1, r1
     9c4:	49 2f       	mov	r20, r25
     9c6:	93 30       	cpi	r25, 0x03	; 3
     9c8:	58 f5       	brcc	.+86     	; 0xa20 <_ZNK8Internal13DCF77_Encoder11get_weekdayEv+0x88>
     9ca:	50 e0       	ldi	r21, 0x00	; 0
     9cc:	46 5f       	subi	r20, 0xF6	; 246
     9ce:	5f 4f       	sbci	r21, 0xFF	; 255
     9d0:	20 81       	ld	r18, Z
     9d2:	82 2f       	mov	r24, r18
     9d4:	82 95       	swap	r24
     9d6:	8f 70       	andi	r24, 0x0F	; 15
     9d8:	2f 70       	andi	r18, 0x0F	; 15
     9da:	6a e0       	ldi	r22, 0x0A	; 10
     9dc:	86 9f       	mul	r24, r22
     9de:	20 0d       	add	r18, r0
     9e0:	11 24       	eor	r1, r1
     9e2:	81 e0       	ldi	r24, 0x01	; 1
     9e4:	93 30       	cpi	r25, 0x03	; 3
     9e6:	08 f0       	brcs	.+2      	; 0x9ea <_ZNK8Internal13DCF77_Encoder11get_weekdayEv+0x52>
     9e8:	80 e0       	ldi	r24, 0x00	; 0
     9ea:	28 1b       	sub	r18, r24
     9ec:	6a e1       	ldi	r22, 0x1A	; 26
     9ee:	64 9f       	mul	r22, r20
     9f0:	c0 01       	movw	r24, r0
     9f2:	65 9f       	mul	r22, r21
     9f4:	90 0d       	add	r25, r0
     9f6:	11 24       	eor	r1, r1
     9f8:	02 97       	sbiw	r24, 0x02	; 2
     9fa:	6a e0       	ldi	r22, 0x0A	; 10
     9fc:	70 e0       	ldi	r23, 0x00	; 0
     9fe:	0e 94 e1 27 	call	0x4fc2	; 0x4fc2 <__udivmodhi4>
     a02:	82 2f       	mov	r24, r18
     a04:	83 0f       	add	r24, r19
     a06:	26 95       	lsr	r18
     a08:	26 95       	lsr	r18
     a0a:	82 0f       	add	r24, r18
     a0c:	86 0f       	add	r24, r22
     a0e:	87 30       	cpi	r24, 0x07	; 7
     a10:	90 f0       	brcs	.+36     	; 0xa36 <_ZNK8Internal13DCF77_Encoder11get_weekdayEv+0x9e>
     a12:	87 50       	subi	r24, 0x07	; 7
     a14:	68 2f       	mov	r22, r24
     a16:	66 95       	lsr	r22
     a18:	66 95       	lsr	r22
     a1a:	66 95       	lsr	r22
     a1c:	87 70       	andi	r24, 0x07	; 7
     a1e:	f6 cf       	rjmp	.-20     	; 0xa0c <_ZNK8Internal13DCF77_Encoder11get_weekdayEv+0x74>
     a20:	4f 70       	andi	r20, 0x0F	; 15
     a22:	89 2f       	mov	r24, r25
     a24:	82 95       	swap	r24
     a26:	8f 70       	andi	r24, 0x0F	; 15
     a28:	82 9f       	mul	r24, r18
     a2a:	40 0d       	add	r20, r0
     a2c:	11 24       	eor	r1, r1
     a2e:	42 50       	subi	r20, 0x02	; 2
     a30:	55 0b       	sbc	r21, r21
     a32:	ce cf       	rjmp	.-100    	; 0x9d0 <_ZNK8Internal13DCF77_Encoder11get_weekdayEv+0x38>
     a34:	8f ef       	ldi	r24, 0xFF	; 255
     a36:	08 95       	ret

00000a38 <_ZN8Internal13DCF77_Encoder20autoset_control_bitsEv>:
     a38:	0f 93       	push	r16
     a3a:	1f 93       	push	r17
     a3c:	cf 93       	push	r28
     a3e:	df 93       	push	r29
     a40:	ec 01       	movw	r28, r24
     a42:	aa df       	rcall	.-172    	; 0x998 <_ZNK8Internal13DCF77_Encoder11get_weekdayEv>
     a44:	81 11       	cpse	r24, r1
     a46:	01 c0       	rjmp	.+2      	; 0xa4a <_ZN8Internal13DCF77_Encoder20autoset_control_bitsEv+0x12>
     a48:	87 e0       	ldi	r24, 0x07	; 7
     a4a:	8b 83       	std	Y+3, r24	; 0x03
     a4c:	19 81       	ldd	r17, Y+1	; 0x01
     a4e:	0a 81       	ldd	r16, Y+2	; 0x02
     a50:	13 30       	cpi	r17, 0x03	; 3
     a52:	c8 f4       	brcc	.+50     	; 0xa86 <_ZN8Internal13DCF77_Encoder20autoset_control_bitsEv+0x4e>
     a54:	8f 81       	ldd	r24, Y+7	; 0x07
     a56:	8e 7f       	andi	r24, 0xFE	; 254
     a58:	8f 83       	std	Y+7, r24	; 0x07
     a5a:	05 32       	cpi	r16, 0x25	; 37
     a5c:	28 f0       	brcs	.+10     	; 0xa68 <_ZN8Internal13DCF77_Encoder20autoset_control_bitsEv+0x30>
     a5e:	ce 01       	movw	r24, r28
     a60:	9b df       	rcall	.-202    	; 0x998 <_ZNK8Internal13DCF77_Encoder11get_weekdayEv>
     a62:	88 23       	and	r24, r24
     a64:	09 f4       	brne	.+2      	; 0xa68 <_ZN8Internal13DCF77_Encoder20autoset_control_bitsEv+0x30>
     a66:	43 c0       	rjmp	.+134    	; 0xaee <_ZN8Internal13DCF77_Encoder20autoset_control_bitsEv+0xb6>
     a68:	8f 81       	ldd	r24, Y+7	; 0x07
     a6a:	8b 7f       	andi	r24, 0xFB	; 251
     a6c:	8f 83       	std	Y+7, r24	; 0x07
     a6e:	60 e0       	ldi	r22, 0x00	; 0
     a70:	ce 01       	movw	r24, r28
     a72:	64 df       	rcall	.-312    	; 0x93c <_ZNK8Internal13DCF77_Encoder28verify_leap_second_scheduledEb>
     a74:	9f 81       	ldd	r25, Y+7	; 0x07
     a76:	80 fb       	bst	r24, 0
     a78:	93 f9       	bld	r25, 3
     a7a:	9f 83       	std	Y+7, r25	; 0x07
     a7c:	df 91       	pop	r29
     a7e:	cf 91       	pop	r28
     a80:	1f 91       	pop	r17
     a82:	0f 91       	pop	r16
     a84:	08 95       	ret
     a86:	13 30       	cpi	r17, 0x03	; 3
     a88:	a9 f4       	brne	.+42     	; 0xab4 <_ZN8Internal13DCF77_Encoder20autoset_control_bitsEv+0x7c>
     a8a:	05 32       	cpi	r16, 0x25	; 37
     a8c:	18 f3       	brcs	.-58     	; 0xa54 <_ZN8Internal13DCF77_Encoder20autoset_control_bitsEv+0x1c>
     a8e:	ce 01       	movw	r24, r28
     a90:	83 df       	rcall	.-250    	; 0x998 <_ZNK8Internal13DCF77_Encoder11get_weekdayEv>
     a92:	88 23       	and	r24, r24
     a94:	49 f0       	breq	.+18     	; 0xaa8 <_ZN8Internal13DCF77_Encoder20autoset_control_bitsEv+0x70>
     a96:	20 2f       	mov	r18, r16
     a98:	28 1b       	sub	r18, r24
     a9a:	33 0b       	sbc	r19, r19
     a9c:	25 32       	cpi	r18, 0x25	; 37
     a9e:	31 05       	cpc	r19, r1
     aa0:	cc f2       	brlt	.-78     	; 0xa54 <_ZN8Internal13DCF77_Encoder20autoset_control_bitsEv+0x1c>
     aa2:	8f 81       	ldd	r24, Y+7	; 0x07
     aa4:	81 60       	ori	r24, 0x01	; 1
     aa6:	d8 cf       	rjmp	.-80     	; 0xa58 <_ZN8Internal13DCF77_Encoder20autoset_control_bitsEv+0x20>
     aa8:	91 e0       	ldi	r25, 0x01	; 1
     aaa:	8c 81       	ldd	r24, Y+4	; 0x04
     aac:	82 30       	cpi	r24, 0x02	; 2
     aae:	d0 f4       	brcc	.+52     	; 0xae4 <_ZN8Internal13DCF77_Encoder20autoset_control_bitsEv+0xac>
     ab0:	90 e0       	ldi	r25, 0x00	; 0
     ab2:	18 c0       	rjmp	.+48     	; 0xae4 <_ZN8Internal13DCF77_Encoder20autoset_control_bitsEv+0xac>
     ab4:	10 31       	cpi	r17, 0x10	; 16
     ab6:	a8 f3       	brcs	.-22     	; 0xaa2 <_ZN8Internal13DCF77_Encoder20autoset_control_bitsEv+0x6a>
     ab8:	10 31       	cpi	r17, 0x10	; 16
     aba:	61 f6       	brne	.-104    	; 0xa54 <_ZN8Internal13DCF77_Encoder20autoset_control_bitsEv+0x1c>
     abc:	05 32       	cpi	r16, 0x25	; 37
     abe:	88 f3       	brcs	.-30     	; 0xaa2 <_ZN8Internal13DCF77_Encoder20autoset_control_bitsEv+0x6a>
     ac0:	ce 01       	movw	r24, r28
     ac2:	6a df       	rcall	.-300    	; 0x998 <_ZNK8Internal13DCF77_Encoder11get_weekdayEv>
     ac4:	88 23       	and	r24, r24
     ac6:	39 f0       	breq	.+14     	; 0xad6 <_ZN8Internal13DCF77_Encoder20autoset_control_bitsEv+0x9e>
     ac8:	20 2f       	mov	r18, r16
     aca:	28 1b       	sub	r18, r24
     acc:	33 0b       	sbc	r19, r19
     ace:	25 32       	cpi	r18, 0x25	; 37
     ad0:	31 05       	cpc	r19, r1
     ad2:	3c f3       	brlt	.-50     	; 0xaa2 <_ZN8Internal13DCF77_Encoder20autoset_control_bitsEv+0x6a>
     ad4:	bf cf       	rjmp	.-130    	; 0xa54 <_ZN8Internal13DCF77_Encoder20autoset_control_bitsEv+0x1c>
     ad6:	8c 81       	ldd	r24, Y+4	; 0x04
     ad8:	82 30       	cpi	r24, 0x02	; 2
     ada:	09 f4       	brne	.+2      	; 0xade <_ZN8Internal13DCF77_Encoder20autoset_control_bitsEv+0xa6>
     adc:	c0 cf       	rjmp	.-128    	; 0xa5e <_ZN8Internal13DCF77_Encoder20autoset_control_bitsEv+0x26>
     ade:	91 e0       	ldi	r25, 0x01	; 1
     ae0:	82 30       	cpi	r24, 0x02	; 2
     ae2:	30 f7       	brcc	.-52     	; 0xab0 <_ZN8Internal13DCF77_Encoder20autoset_control_bitsEv+0x78>
     ae4:	8f 81       	ldd	r24, Y+7	; 0x07
     ae6:	90 fb       	bst	r25, 0
     ae8:	80 f9       	bld	r24, 0
     aea:	8f 83       	std	Y+7, r24	; 0x07
     aec:	b8 cf       	rjmp	.-144    	; 0xa5e <_ZN8Internal13DCF77_Encoder20autoset_control_bitsEv+0x26>
     aee:	13 30       	cpi	r17, 0x03	; 3
     af0:	a1 f4       	brne	.+40     	; 0xb1a <_ZN8Internal13DCF77_Encoder20autoset_control_bitsEv+0xe2>
     af2:	8f 81       	ldd	r24, Y+7	; 0x07
     af4:	2c 81       	ldd	r18, Y+4	; 0x04
     af6:	98 2f       	mov	r25, r24
     af8:	91 70       	andi	r25, 0x01	; 1
     afa:	80 ff       	sbrs	r24, 0
     afc:	07 c0       	rjmp	.+14     	; 0xb0c <_ZN8Internal13DCF77_Encoder20autoset_control_bitsEv+0xd4>
     afe:	23 30       	cpi	r18, 0x03	; 3
     b00:	b1 f4       	brne	.+44     	; 0xb2e <_ZN8Internal13DCF77_Encoder20autoset_control_bitsEv+0xf6>
     b02:	91 e0       	ldi	r25, 0x01	; 1
     b04:	2d 81       	ldd	r18, Y+5	; 0x05
     b06:	22 23       	and	r18, r18
     b08:	99 f0       	breq	.+38     	; 0xb30 <_ZN8Internal13DCF77_Encoder20autoset_control_bitsEv+0xf8>
     b0a:	11 c0       	rjmp	.+34     	; 0xb2e <_ZN8Internal13DCF77_Encoder20autoset_control_bitsEv+0xf6>
     b0c:	21 30       	cpi	r18, 0x01	; 1
     b0e:	81 f4       	brne	.+32     	; 0xb30 <_ZN8Internal13DCF77_Encoder20autoset_control_bitsEv+0xf8>
     b10:	91 e0       	ldi	r25, 0x01	; 1
     b12:	2d 81       	ldd	r18, Y+5	; 0x05
     b14:	21 11       	cpse	r18, r1
     b16:	0c c0       	rjmp	.+24     	; 0xb30 <_ZN8Internal13DCF77_Encoder20autoset_control_bitsEv+0xf8>
     b18:	0a c0       	rjmp	.+20     	; 0xb2e <_ZN8Internal13DCF77_Encoder20autoset_control_bitsEv+0xf6>
     b1a:	10 31       	cpi	r17, 0x10	; 16
     b1c:	79 f4       	brne	.+30     	; 0xb3c <_ZN8Internal13DCF77_Encoder20autoset_control_bitsEv+0x104>
     b1e:	8f 81       	ldd	r24, Y+7	; 0x07
     b20:	2c 81       	ldd	r18, Y+4	; 0x04
     b22:	98 2f       	mov	r25, r24
     b24:	91 70       	andi	r25, 0x01	; 1
     b26:	80 ff       	sbrs	r24, 0
     b28:	06 c0       	rjmp	.+12     	; 0xb36 <_ZN8Internal13DCF77_Encoder20autoset_control_bitsEv+0xfe>
     b2a:	22 30       	cpi	r18, 0x02	; 2
     b2c:	89 f3       	breq	.-30     	; 0xb10 <_ZN8Internal13DCF77_Encoder20autoset_control_bitsEv+0xd8>
     b2e:	90 e0       	ldi	r25, 0x00	; 0
     b30:	90 fb       	bst	r25, 0
     b32:	82 f9       	bld	r24, 2
     b34:	9b cf       	rjmp	.-202    	; 0xa6c <_ZN8Internal13DCF77_Encoder20autoset_control_bitsEv+0x34>
     b36:	22 30       	cpi	r18, 0x02	; 2
     b38:	d9 f7       	brne	.-10     	; 0xb30 <_ZN8Internal13DCF77_Encoder20autoset_control_bitsEv+0xf8>
     b3a:	e3 cf       	rjmp	.-58     	; 0xb02 <_ZN8Internal13DCF77_Encoder20autoset_control_bitsEv+0xca>
     b3c:	13 31       	cpi	r17, 0x13	; 19
     b3e:	08 f4       	brcc	.+2      	; 0xb42 <_ZN8Internal13DCF77_Encoder20autoset_control_bitsEv+0x10a>
     b40:	93 cf       	rjmp	.-218    	; 0xa68 <_ZN8Internal13DCF77_Encoder20autoset_control_bitsEv+0x30>
     b42:	95 cf       	rjmp	.-214    	; 0xa6e <_ZN8Internal13DCF77_Encoder20autoset_control_bitsEv+0x36>

00000b44 <_ZNK8Internal13DCF77_Encoder14days_per_monthEv>:
     b44:	dc 01       	movw	r26, r24
     b46:	11 96       	adiw	r26, 0x01	; 1
     b48:	ec 91       	ld	r30, X
     b4a:	e1 50       	subi	r30, 0x01	; 1
     b4c:	e2 31       	cpi	r30, 0x12	; 18
     b4e:	48 f5       	brcc	.+82     	; 0xba2 <_ZNK8Internal13DCF77_Encoder14days_per_monthEv+0x5e>
     b50:	f0 e0       	ldi	r31, 0x00	; 0
     b52:	e3 55       	subi	r30, 0x53	; 83
     b54:	fa 4f       	sbci	r31, 0xFA	; 250
     b56:	0c 94 24 28 	jmp	0x5048	; 0x5048 <__tablejump2__>
     b5a:	d3 05       	cpc	r29, r3
     b5c:	c1 05       	cpc	r28, r1
     b5e:	d3 05       	cpc	r29, r3
     b60:	bf 05       	cpc	r27, r15
     b62:	d3 05       	cpc	r29, r3
     b64:	bf 05       	cpc	r27, r15
     b66:	d3 05       	cpc	r29, r3
     b68:	d3 05       	cpc	r29, r3
     b6a:	bf 05       	cpc	r27, r15
     b6c:	d1 05       	cpc	r29, r1
     b6e:	d1 05       	cpc	r29, r1
     b70:	d1 05       	cpc	r29, r1
     b72:	d1 05       	cpc	r29, r1
     b74:	d1 05       	cpc	r29, r1
     b76:	d1 05       	cpc	r29, r1
     b78:	d3 05       	cpc	r29, r3
     b7a:	bf 05       	cpc	r27, r15
     b7c:	d3 05       	cpc	r29, r3
     b7e:	8e e1       	ldi	r24, 0x1E	; 30
     b80:	08 95       	ret
     b82:	fc 01       	movw	r30, r24
     b84:	80 81       	ld	r24, Z
     b86:	88 23       	and	r24, r24
     b88:	81 f0       	breq	.+32     	; 0xbaa <_ZNK8Internal13DCF77_Encoder14days_per_monthEv+0x66>
     b8a:	98 2f       	mov	r25, r24
     b8c:	92 95       	swap	r25
     b8e:	9f 70       	andi	r25, 0x0F	; 15
     b90:	8f 70       	andi	r24, 0x0F	; 15
     b92:	fa e0       	ldi	r31, 0x0A	; 10
     b94:	9f 9f       	mul	r25, r31
     b96:	80 0d       	add	r24, r0
     b98:	11 24       	eor	r1, r1
     b9a:	83 70       	andi	r24, 0x03	; 3
     b9c:	31 f4       	brne	.+12     	; 0xbaa <_ZNK8Internal13DCF77_Encoder14days_per_monthEv+0x66>
     b9e:	8d e1       	ldi	r24, 0x1D	; 29
     ba0:	08 95       	ret
     ba2:	80 e0       	ldi	r24, 0x00	; 0
     ba4:	08 95       	ret
     ba6:	8f e1       	ldi	r24, 0x1F	; 31
     ba8:	08 95       	ret
     baa:	8c e1       	ldi	r24, 0x1C	; 28
     bac:	08 95       	ret

00000bae <_ZN8Internal18DCF77_Flag_Decoder9cummulateERab>:
     bae:	fc 01       	movw	r30, r24
     bb0:	90 81       	ld	r25, Z
     bb2:	66 23       	and	r22, r22
     bb4:	39 f0       	breq	.+14     	; 0xbc4 <_ZN8Internal18DCF77_Flag_Decoder9cummulateERab+0x16>
     bb6:	21 e0       	ldi	r18, 0x01	; 1
     bb8:	9f 37       	cpi	r25, 0x7F	; 127
     bba:	09 f4       	brne	.+2      	; 0xbbe <_ZN8Internal18DCF77_Flag_Decoder9cummulateERab+0x10>
     bbc:	20 e0       	ldi	r18, 0x00	; 0
     bbe:	92 0f       	add	r25, r18
     bc0:	90 83       	st	Z, r25
     bc2:	08 95       	ret
     bc4:	81 e0       	ldi	r24, 0x01	; 1
     bc6:	92 38       	cpi	r25, 0x82	; 130
     bc8:	0c f4       	brge	.+2      	; 0xbcc <_ZN8Internal18DCF77_Flag_Decoder9cummulateERab+0x1e>
     bca:	80 e0       	ldi	r24, 0x00	; 0
     bcc:	98 1b       	sub	r25, r24
     bce:	f8 cf       	rjmp	.-16     	; 0xbc0 <_ZN8Internal18DCF77_Flag_Decoder9cummulateERab+0x12>

00000bd0 <_ZN8Internal16Arithmetic_Tools6parityEh>:
     bd0:	98 2f       	mov	r25, r24
     bd2:	9f 70       	andi	r25, 0x0F	; 15
     bd4:	82 95       	swap	r24
     bd6:	8f 70       	andi	r24, 0x0F	; 15
     bd8:	98 27       	eor	r25, r24
     bda:	89 2f       	mov	r24, r25
     bdc:	83 70       	andi	r24, 0x03	; 3
     bde:	96 95       	lsr	r25
     be0:	96 95       	lsr	r25
     be2:	98 27       	eor	r25, r24
     be4:	89 2f       	mov	r24, r25
     be6:	81 70       	andi	r24, 0x01	; 1
     be8:	96 95       	lsr	r25
     bea:	89 27       	eor	r24, r25
     bec:	08 95       	ret

00000bee <_ZN3BCD10int_to_bcdEh>:
     bee:	28 2f       	mov	r18, r24
     bf0:	6a e0       	ldi	r22, 0x0A	; 10
     bf2:	0e 94 c8 27 	call	0x4f90	; 0x4f90 <__udivmodqi4>
     bf6:	96 ef       	ldi	r25, 0xF6	; 246
     bf8:	89 9f       	mul	r24, r25
     bfa:	20 0d       	add	r18, r0
     bfc:	11 24       	eor	r1, r1
     bfe:	82 95       	swap	r24
     c00:	80 7f       	andi	r24, 0xF0	; 240
     c02:	2f 70       	andi	r18, 0x0F	; 15
     c04:	82 2b       	or	r24, r18
     c06:	08 95       	ret

00000c08 <_ZN8Internal7Binning7DecoderIhLj12EE14get_time_valueEv.constprop.44>:
     c08:	80 91 57 04 	lds	r24, 0x0457	; 0x800457 <_ZN8Internal22DCF77_Clock_ControllerI13ConfigurationNS_23DCF77_Frequency_ControlEE13Month_DecoderE+0xe>
     c0c:	90 91 56 04 	lds	r25, 0x0456	; 0x800456 <_ZN8Internal22DCF77_Clock_ControllerI13ConfigurationNS_23DCF77_Frequency_ControlEE13Month_DecoderE+0xd>
     c10:	89 1b       	sub	r24, r25
     c12:	99 0b       	sbc	r25, r25
     c14:	02 97       	sbiw	r24, 0x02	; 2
     c16:	74 f0       	brlt	.+28     	; 0xc34 <_ZN8Internal7Binning7DecoderIhLj12EE14get_time_valueEv.constprop.44+0x2c>
     c18:	80 91 58 04 	lds	r24, 0x0458	; 0x800458 <_ZN8Internal22DCF77_Clock_ControllerI13ConfigurationNS_23DCF77_Frequency_ControlEE13Month_DecoderE+0xf>
     c1c:	90 91 55 04 	lds	r25, 0x0455	; 0x800455 <_ZN8Internal22DCF77_Clock_ControllerI13ConfigurationNS_23DCF77_Frequency_ControlEE13Month_DecoderE+0xc>
     c20:	89 0f       	add	r24, r25
     c22:	99 27       	eor	r25, r25
     c24:	99 1f       	adc	r25, r25
     c26:	01 96       	adiw	r24, 0x01	; 1
     c28:	6c e0       	ldi	r22, 0x0C	; 12
     c2a:	70 e0       	ldi	r23, 0x00	; 0
     c2c:	0e 94 e1 27 	call	0x4fc2	; 0x4fc2 <__udivmodhi4>
     c30:	8f 5f       	subi	r24, 0xFF	; 255
     c32:	dd cf       	rjmp	.-70     	; 0xbee <_ZN3BCD10int_to_bcdEh>
     c34:	8f ef       	ldi	r24, 0xFF	; 255
     c36:	08 95       	ret

00000c38 <_ZN8Internal7Binning7DecoderIhLj31EE14get_time_valueEv.constprop.41>:
     c38:	80 91 47 04 	lds	r24, 0x0447	; 0x800447 <_ZN8Internal22DCF77_Clock_ControllerI13ConfigurationNS_23DCF77_Frequency_ControlEE11Day_DecoderE+0x21>
     c3c:	90 91 46 04 	lds	r25, 0x0446	; 0x800446 <_ZN8Internal22DCF77_Clock_ControllerI13ConfigurationNS_23DCF77_Frequency_ControlEE11Day_DecoderE+0x20>
     c40:	89 1b       	sub	r24, r25
     c42:	99 0b       	sbc	r25, r25
     c44:	02 97       	sbiw	r24, 0x02	; 2
     c46:	74 f0       	brlt	.+28     	; 0xc64 <_ZN8Internal7Binning7DecoderIhLj31EE14get_time_valueEv.constprop.41+0x2c>
     c48:	80 91 48 04 	lds	r24, 0x0448	; 0x800448 <_ZN8Internal22DCF77_Clock_ControllerI13ConfigurationNS_23DCF77_Frequency_ControlEE11Day_DecoderE+0x22>
     c4c:	90 91 45 04 	lds	r25, 0x0445	; 0x800445 <_ZN8Internal22DCF77_Clock_ControllerI13ConfigurationNS_23DCF77_Frequency_ControlEE11Day_DecoderE+0x1f>
     c50:	89 0f       	add	r24, r25
     c52:	99 27       	eor	r25, r25
     c54:	99 1f       	adc	r25, r25
     c56:	01 96       	adiw	r24, 0x01	; 1
     c58:	6f e1       	ldi	r22, 0x1F	; 31
     c5a:	70 e0       	ldi	r23, 0x00	; 0
     c5c:	0e 94 e1 27 	call	0x4fc2	; 0x4fc2 <__udivmodhi4>
     c60:	8f 5f       	subi	r24, 0xFF	; 255
     c62:	c5 cf       	rjmp	.-118    	; 0xbee <_ZN3BCD10int_to_bcdEh>
     c64:	8f ef       	ldi	r24, 0xFF	; 255
     c66:	08 95       	ret

00000c68 <_ZN8Internal7Binning7DecoderIhLj7EE14get_time_valueEv.constprop.38>:
     c68:	80 91 24 04 	lds	r24, 0x0424	; 0x800424 <_ZN8Internal22DCF77_Clock_ControllerI13ConfigurationNS_23DCF77_Frequency_ControlEE15Weekday_DecoderE+0x9>
     c6c:	90 91 23 04 	lds	r25, 0x0423	; 0x800423 <_ZN8Internal22DCF77_Clock_ControllerI13ConfigurationNS_23DCF77_Frequency_ControlEE15Weekday_DecoderE+0x8>
     c70:	89 1b       	sub	r24, r25
     c72:	99 0b       	sbc	r25, r25
     c74:	02 97       	sbiw	r24, 0x02	; 2
     c76:	74 f0       	brlt	.+28     	; 0xc94 <_ZN8Internal7Binning7DecoderIhLj7EE14get_time_valueEv.constprop.38+0x2c>
     c78:	80 91 25 04 	lds	r24, 0x0425	; 0x800425 <_ZN8Internal22DCF77_Clock_ControllerI13ConfigurationNS_23DCF77_Frequency_ControlEE15Weekday_DecoderE+0xa>
     c7c:	90 91 22 04 	lds	r25, 0x0422	; 0x800422 <_ZN8Internal22DCF77_Clock_ControllerI13ConfigurationNS_23DCF77_Frequency_ControlEE15Weekday_DecoderE+0x7>
     c80:	89 0f       	add	r24, r25
     c82:	99 27       	eor	r25, r25
     c84:	99 1f       	adc	r25, r25
     c86:	01 96       	adiw	r24, 0x01	; 1
     c88:	67 e0       	ldi	r22, 0x07	; 7
     c8a:	70 e0       	ldi	r23, 0x00	; 0
     c8c:	0e 94 e1 27 	call	0x4fc2	; 0x4fc2 <__udivmodhi4>
     c90:	8f 5f       	subi	r24, 0xFF	; 255
     c92:	ad cf       	rjmp	.-166    	; 0xbee <_ZN3BCD10int_to_bcdEh>
     c94:	8f ef       	ldi	r24, 0xFF	; 255
     c96:	08 95       	ret

00000c98 <_ZN8Internal7Binning7DecoderIhLj24EE14get_time_valueEv.constprop.35>:
     c98:	80 91 19 04 	lds	r24, 0x0419	; 0x800419 <_ZN8Internal22DCF77_Clock_ControllerI13ConfigurationNS_23DCF77_Frequency_ControlEE12Hour_DecoderE+0x1a>
     c9c:	90 91 18 04 	lds	r25, 0x0418	; 0x800418 <_ZN8Internal22DCF77_Clock_ControllerI13ConfigurationNS_23DCF77_Frequency_ControlEE12Hour_DecoderE+0x19>
     ca0:	89 1b       	sub	r24, r25
     ca2:	99 0b       	sbc	r25, r25
     ca4:	02 97       	sbiw	r24, 0x02	; 2
     ca6:	6c f0       	brlt	.+26     	; 0xcc2 <_ZN8Internal7Binning7DecoderIhLj24EE14get_time_valueEv.constprop.35+0x2a>
     ca8:	80 91 1a 04 	lds	r24, 0x041A	; 0x80041a <_ZN8Internal22DCF77_Clock_ControllerI13ConfigurationNS_23DCF77_Frequency_ControlEE12Hour_DecoderE+0x1b>
     cac:	90 91 17 04 	lds	r25, 0x0417	; 0x800417 <_ZN8Internal22DCF77_Clock_ControllerI13ConfigurationNS_23DCF77_Frequency_ControlEE12Hour_DecoderE+0x18>
     cb0:	89 0f       	add	r24, r25
     cb2:	99 27       	eor	r25, r25
     cb4:	99 1f       	adc	r25, r25
     cb6:	01 96       	adiw	r24, 0x01	; 1
     cb8:	68 e1       	ldi	r22, 0x18	; 24
     cba:	70 e0       	ldi	r23, 0x00	; 0
     cbc:	0e 94 e1 27 	call	0x4fc2	; 0x4fc2 <__udivmodhi4>
     cc0:	96 cf       	rjmp	.-212    	; 0xbee <_ZN3BCD10int_to_bcdEh>
     cc2:	8f ef       	ldi	r24, 0xFF	; 255
     cc4:	08 95       	ret

00000cc6 <_ZN8Internal7Binning7DecoderIhLj60EE14get_time_valueEv.constprop.26>:
     cc6:	80 91 b5 03 	lds	r24, 0x03B5	; 0x8003b5 <_ZN8Internal22DCF77_Clock_ControllerI13ConfigurationNS_23DCF77_Frequency_ControlEE14Minute_DecoderE+0x3e>
     cca:	90 91 b4 03 	lds	r25, 0x03B4	; 0x8003b4 <_ZN8Internal22DCF77_Clock_ControllerI13ConfigurationNS_23DCF77_Frequency_ControlEE14Minute_DecoderE+0x3d>
     cce:	89 1b       	sub	r24, r25
     cd0:	99 0b       	sbc	r25, r25
     cd2:	02 97       	sbiw	r24, 0x02	; 2
     cd4:	6c f0       	brlt	.+26     	; 0xcf0 <_ZN8Internal7Binning7DecoderIhLj60EE14get_time_valueEv.constprop.26+0x2a>
     cd6:	80 91 b6 03 	lds	r24, 0x03B6	; 0x8003b6 <_ZN8Internal22DCF77_Clock_ControllerI13ConfigurationNS_23DCF77_Frequency_ControlEE14Minute_DecoderE+0x3f>
     cda:	90 91 b3 03 	lds	r25, 0x03B3	; 0x8003b3 <_ZN8Internal22DCF77_Clock_ControllerI13ConfigurationNS_23DCF77_Frequency_ControlEE14Minute_DecoderE+0x3c>
     cde:	89 0f       	add	r24, r25
     ce0:	99 27       	eor	r25, r25
     ce2:	99 1f       	adc	r25, r25
     ce4:	01 96       	adiw	r24, 0x01	; 1
     ce6:	6c e3       	ldi	r22, 0x3C	; 60
     ce8:	70 e0       	ldi	r23, 0x00	; 0
     cea:	0e 94 e1 27 	call	0x4fc2	; 0x4fc2 <__udivmodhi4>
     cee:	7f cf       	rjmp	.-258    	; 0xbee <_ZN3BCD10int_to_bcdEh>
     cf0:	8f ef       	ldi	r24, 0xFF	; 255
     cf2:	08 95       	ret

00000cf4 <_ZN8Internal7Binning7DecoderIhLj10EE14get_time_valueEv>:
     cf4:	fc 01       	movw	r30, r24
     cf6:	84 85       	ldd	r24, Z+12	; 0x0c
     cf8:	93 85       	ldd	r25, Z+11	; 0x0b
     cfa:	89 1b       	sub	r24, r25
     cfc:	99 0b       	sbc	r25, r25
     cfe:	02 97       	sbiw	r24, 0x02	; 2
     d00:	5c f0       	brlt	.+22     	; 0xd18 <_ZN8Internal7Binning7DecoderIhLj10EE14get_time_valueEv+0x24>
     d02:	85 85       	ldd	r24, Z+13	; 0x0d
     d04:	92 85       	ldd	r25, Z+10	; 0x0a
     d06:	89 0f       	add	r24, r25
     d08:	99 27       	eor	r25, r25
     d0a:	99 1f       	adc	r25, r25
     d0c:	01 96       	adiw	r24, 0x01	; 1
     d0e:	6a e0       	ldi	r22, 0x0A	; 10
     d10:	70 e0       	ldi	r23, 0x00	; 0
     d12:	0e 94 e1 27 	call	0x4fc2	; 0x4fc2 <__udivmodhi4>
     d16:	6b cf       	rjmp	.-298    	; 0xbee <_ZN3BCD10int_to_bcdEh>
     d18:	8f ef       	ldi	r24, 0xFF	; 255
     d1a:	08 95       	ret

00000d1c <_ZN8Internal18DCF77_Year_Decoder14get_time_valueEv.constprop.28>:
     d1c:	cf 93       	push	r28
     d1e:	89 e5       	ldi	r24, 0x59	; 89
     d20:	94 e0       	ldi	r25, 0x04	; 4
     d22:	e8 df       	rcall	.-48     	; 0xcf4 <_ZN8Internal7Binning7DecoderIhLj10EE14get_time_valueEv>
     d24:	c8 2f       	mov	r28, r24
     d26:	87 e6       	ldi	r24, 0x67	; 103
     d28:	94 e0       	ldi	r25, 0x04	; 4
     d2a:	e4 df       	rcall	.-56     	; 0xcf4 <_ZN8Internal7Binning7DecoderIhLj10EE14get_time_valueEv>
     d2c:	cf 3f       	cpi	r28, 0xFF	; 255
     d2e:	39 f0       	breq	.+14     	; 0xd3e <_ZN8Internal18DCF77_Year_Decoder14get_time_valueEv.constprop.28+0x22>
     d30:	8f 3f       	cpi	r24, 0xFF	; 255
     d32:	19 f0       	breq	.+6      	; 0xd3a <_ZN8Internal18DCF77_Year_Decoder14get_time_valueEv.constprop.28+0x1e>
     d34:	82 95       	swap	r24
     d36:	80 7f       	andi	r24, 0xF0	; 240
     d38:	8c 0f       	add	r24, r28
     d3a:	cf 91       	pop	r28
     d3c:	08 95       	ret
     d3e:	8f ef       	ldi	r24, 0xFF	; 255
     d40:	fc cf       	rjmp	.-8      	; 0xd3a <_ZN8Internal18DCF77_Year_Decoder14get_time_valueEv.constprop.28+0x1e>

00000d42 <_ZN8Internal22DCF77_Clock_ControllerI13ConfigurationNS_23DCF77_Frequency_ControlEE17set_DCF77_EncoderERNS_13DCF77_EncoderE>:
     d42:	cf 93       	push	r28
     d44:	df 93       	push	r29
     d46:	ec 01       	movw	r28, r24
     d48:	49 da       	rcall	.-2926   	; 0x1dc <_ZN8Internal20DCF77_Second_Decoder14get_time_valueEv.constprop.32>
     d4a:	8e 83       	std	Y+6, r24	; 0x06
     d4c:	bc df       	rcall	.-136    	; 0xcc6 <_ZN8Internal7Binning7DecoderIhLj60EE14get_time_valueEv.constprop.26>
     d4e:	8d 83       	std	Y+5, r24	; 0x05
     d50:	a3 df       	rcall	.-186    	; 0xc98 <_ZN8Internal7Binning7DecoderIhLj24EE14get_time_valueEv.constprop.35>
     d52:	8c 83       	std	Y+4, r24	; 0x04
     d54:	89 df       	rcall	.-238    	; 0xc68 <_ZN8Internal7Binning7DecoderIhLj7EE14get_time_valueEv.constprop.38>
     d56:	8b 83       	std	Y+3, r24	; 0x03
     d58:	6f df       	rcall	.-290    	; 0xc38 <_ZN8Internal7Binning7DecoderIhLj31EE14get_time_valueEv.constprop.41>
     d5a:	8a 83       	std	Y+2, r24	; 0x02
     d5c:	55 df       	rcall	.-342    	; 0xc08 <_ZN8Internal7Binning7DecoderIhLj12EE14get_time_valueEv.constprop.44>
     d5e:	89 83       	std	Y+1, r24	; 0x01
     d60:	dd df       	rcall	.-70     	; 0xd1c <_ZN8Internal18DCF77_Year_Decoder14get_time_valueEv.constprop.28>
     d62:	88 83       	st	Y, r24
     d64:	8f 81       	ldd	r24, Y+7	; 0x07
     d66:	90 91 6e 03 	lds	r25, 0x036E	; 0x80036e <_ZN8Internal22DCF77_Clock_ControllerI13ConfigurationNS_23DCF77_Frequency_ControlEE12Flag_DecoderE>
     d6a:	90 fb       	bst	r25, 0
     d6c:	81 f9       	bld	r24, 1
     d6e:	8f 83       	std	Y+7, r24	; 0x07
     d70:	91 e0       	ldi	r25, 0x01	; 1
     d72:	80 91 6f 03 	lds	r24, 0x036F	; 0x80036f <_ZN8Internal22DCF77_Clock_ControllerI13ConfigurationNS_23DCF77_Frequency_ControlEE12Flag_DecoderE+0x1>
     d76:	18 16       	cp	r1, r24
     d78:	0c f0       	brlt	.+2      	; 0xd7c <_ZN8Internal22DCF77_Clock_ControllerI13ConfigurationNS_23DCF77_Frequency_ControlEE17set_DCF77_EncoderERNS_13DCF77_EncoderE+0x3a>
     d7a:	90 e0       	ldi	r25, 0x00	; 0
     d7c:	8f 81       	ldd	r24, Y+7	; 0x07
     d7e:	90 fb       	bst	r25, 0
     d80:	82 f9       	bld	r24, 2
     d82:	90 91 70 03 	lds	r25, 0x0370	; 0x800370 <_ZN8Internal22DCF77_Clock_ControllerI13ConfigurationNS_23DCF77_Frequency_ControlEE12Flag_DecoderE+0x2>
     d86:	8e 7f       	andi	r24, 0xFE	; 254
     d88:	97 ff       	sbrs	r25, 7
     d8a:	81 60       	ori	r24, 0x01	; 1
     d8c:	8f 83       	std	Y+7, r24	; 0x07
     d8e:	91 e0       	ldi	r25, 0x01	; 1
     d90:	80 91 71 03 	lds	r24, 0x0371	; 0x800371 <_ZN8Internal22DCF77_Clock_ControllerI13ConfigurationNS_23DCF77_Frequency_ControlEE12Flag_DecoderE+0x3>
     d94:	18 16       	cp	r1, r24
     d96:	0c f0       	brlt	.+2      	; 0xd9a <_ZN8Internal22DCF77_Clock_ControllerI13ConfigurationNS_23DCF77_Frequency_ControlEE17set_DCF77_EncoderERNS_13DCF77_EncoderE+0x58>
     d98:	90 e0       	ldi	r25, 0x00	; 0
     d9a:	8f 81       	ldd	r24, Y+7	; 0x07
     d9c:	90 fb       	bst	r25, 0
     d9e:	83 f9       	bld	r24, 3
     da0:	8f 83       	std	Y+7, r24	; 0x07
     da2:	df 91       	pop	r29
     da4:	cf 91       	pop	r28
     da6:	08 95       	ret

00000da8 <_ZN11DCF77_Clock17read_current_timeERN5Clock6time_tE>:
     da8:	df 92       	push	r13
     daa:	ef 92       	push	r14
     dac:	ff 92       	push	r15
     dae:	0f 93       	push	r16
     db0:	1f 93       	push	r17
     db2:	cf 93       	push	r28
     db4:	df 93       	push	r29
     db6:	cd b7       	in	r28, 0x3d	; 61
     db8:	de b7       	in	r29, 0x3e	; 62
     dba:	28 97       	sbiw	r28, 0x08	; 8
     dbc:	0f b6       	in	r0, 0x3f	; 63
     dbe:	f8 94       	cli
     dc0:	de bf       	out	0x3e, r29	; 62
     dc2:	0f be       	out	0x3f, r0	; 63
     dc4:	cd bf       	out	0x3d, r28	; 61
     dc6:	8c 01       	movw	r16, r24
     dc8:	2f b7       	in	r18, 0x3f	; 63
     dca:	f8 94       	cli
     dcc:	88 e0       	ldi	r24, 0x08	; 8
     dce:	eb e5       	ldi	r30, 0x5B	; 91
     dd0:	f3 e0       	ldi	r31, 0x03	; 3
     dd2:	de 01       	movw	r26, r28
     dd4:	11 96       	adiw	r26, 0x01	; 1
     dd6:	01 90       	ld	r0, Z+
     dd8:	0d 92       	st	X+, r0
     dda:	8a 95       	dec	r24
     ddc:	e1 f7       	brne	.-8      	; 0xdd6 <_ZN11DCF77_Clock17read_current_timeERN5Clock6time_tE+0x2e>
     dde:	80 91 61 03 	lds	r24, 0x0361	; 0x800361 <_ZN8Internal22DCF77_Clock_ControllerI13ConfigurationNS_23DCF77_Frequency_ControlEE11Local_ClockE+0x8>
     de2:	90 91 62 03 	lds	r25, 0x0362	; 0x800362 <_ZN8Internal22DCF77_Clock_ControllerI13ConfigurationNS_23DCF77_Frequency_ControlEE11Local_ClockE+0x9>
     de6:	90 fb       	bst	r25, 0
     de8:	dd 24       	eor	r13, r13
     dea:	d0 f8       	bld	r13, 0
     dec:	92 fb       	bst	r25, 2
     dee:	ee 24       	eor	r14, r14
     df0:	e0 f8       	bld	r14, 0
     df2:	93 fb       	bst	r25, 3
     df4:	ff 24       	eor	r15, r15
     df6:	f0 f8       	bld	r15, 0
     df8:	2f bf       	out	0x3f, r18	; 63
     dfa:	f9 de       	rcall	.-526    	; 0xbee <_ZN3BCD10int_to_bcdEh>
     dfc:	f8 01       	movw	r30, r16
     dfe:	86 83       	std	Z+6, r24	; 0x06
     e00:	8e 81       	ldd	r24, Y+6	; 0x06
     e02:	85 83       	std	Z+5, r24	; 0x05
     e04:	8d 81       	ldd	r24, Y+5	; 0x05
     e06:	84 83       	std	Z+4, r24	; 0x04
     e08:	8c 81       	ldd	r24, Y+4	; 0x04
     e0a:	83 83       	std	Z+3, r24	; 0x03
     e0c:	8b 81       	ldd	r24, Y+3	; 0x03
     e0e:	82 83       	std	Z+2, r24	; 0x02
     e10:	8a 81       	ldd	r24, Y+2	; 0x02
     e12:	81 83       	std	Z+1, r24	; 0x01
     e14:	89 81       	ldd	r24, Y+1	; 0x01
     e16:	80 83       	st	Z, r24
     e18:	d7 82       	std	Z+7, r13	; 0x07
     e1a:	f1 86       	std	Z+9, r15	; 0x09
     e1c:	e0 86       	std	Z+8, r14	; 0x08
     e1e:	28 96       	adiw	r28, 0x08	; 8
     e20:	0f b6       	in	r0, 0x3f	; 63
     e22:	f8 94       	cli
     e24:	de bf       	out	0x3e, r29	; 62
     e26:	0f be       	out	0x3f, r0	; 63
     e28:	cd bf       	out	0x3d, r28	; 61
     e2a:	df 91       	pop	r29
     e2c:	cf 91       	pop	r28
     e2e:	1f 91       	pop	r17
     e30:	0f 91       	pop	r16
     e32:	ff 90       	pop	r15
     e34:	ef 90       	pop	r14
     e36:	df 90       	pop	r13
     e38:	08 95       	ret

00000e3a <_ZN3BCD9incrementERNS_5bcd_tE>:
     e3a:	fc 01       	movw	r30, r24
     e3c:	90 81       	ld	r25, Z
     e3e:	29 2f       	mov	r18, r25
     e40:	2f 70       	andi	r18, 0x0F	; 15
     e42:	90 7f       	andi	r25, 0xF0	; 240
     e44:	29 30       	cpi	r18, 0x09	; 9
     e46:	28 f4       	brcc	.+10     	; 0xe52 <_ZN3BCD9incrementERNS_5bcd_tE+0x18>
     e48:	2f 5f       	subi	r18, 0xFF	; 255
     e4a:	2f 70       	andi	r18, 0x0F	; 15
     e4c:	92 2b       	or	r25, r18
     e4e:	90 83       	st	Z, r25
     e50:	08 95       	ret
     e52:	90 83       	st	Z, r25
     e54:	92 95       	swap	r25
     e56:	9f 70       	andi	r25, 0x0F	; 15
     e58:	99 30       	cpi	r25, 0x09	; 9
     e5a:	20 f4       	brcc	.+8      	; 0xe64 <_ZN3BCD9incrementERNS_5bcd_tE+0x2a>
     e5c:	9f 5f       	subi	r25, 0xFF	; 255
     e5e:	92 95       	swap	r25
     e60:	90 7f       	andi	r25, 0xF0	; 240
     e62:	f5 cf       	rjmp	.-22     	; 0xe4e <_ZN3BCD9incrementERNS_5bcd_tE+0x14>
     e64:	10 82       	st	Z, r1
     e66:	08 95       	ret

00000e68 <_ZN8Internal13DCF77_Encoder14advance_minuteEv>:
     e68:	0f 93       	push	r16
     e6a:	1f 93       	push	r17
     e6c:	cf 93       	push	r28
     e6e:	df 93       	push	r29
     e70:	fc 01       	movw	r30, r24
     e72:	25 81       	ldd	r18, Z+5	; 0x05
     e74:	29 35       	cpi	r18, 0x59	; 89
     e76:	30 f4       	brcc	.+12     	; 0xe84 <_ZN8Internal13DCF77_Encoder14advance_minuteEv+0x1c>
     e78:	05 96       	adiw	r24, 0x05	; 5
     e7a:	df 91       	pop	r29
     e7c:	cf 91       	pop	r28
     e7e:	1f 91       	pop	r17
     e80:	0f 91       	pop	r16
     e82:	db cf       	rjmp	.-74     	; 0xe3a <_ZN3BCD9incrementERNS_5bcd_tE>
     e84:	29 35       	cpi	r18, 0x59	; 89
     e86:	a1 f4       	brne	.+40     	; 0xeb0 <_ZN8Internal13DCF77_Encoder14advance_minuteEv+0x48>
     e88:	ec 01       	movw	r28, r24
     e8a:	15 82       	std	Z+5, r1	; 0x05
     e8c:	94 81       	ldd	r25, Z+4	; 0x04
     e8e:	87 81       	ldd	r24, Z+7	; 0x07
     e90:	82 ff       	sbrs	r24, 2
     e92:	17 c0       	rjmp	.+46     	; 0xec2 <_ZN8Internal13DCF77_Encoder14advance_minuteEv+0x5a>
     e94:	80 fd       	sbrc	r24, 0
     e96:	11 c0       	rjmp	.+34     	; 0xeba <_ZN8Internal13DCF77_Encoder14advance_minuteEv+0x52>
     e98:	91 30       	cpi	r25, 0x01	; 1
     e9a:	99 f4       	brne	.+38     	; 0xec2 <_ZN8Internal13DCF77_Encoder14advance_minuteEv+0x5a>
     e9c:	8f 01       	movw	r16, r30
     e9e:	0c 5f       	subi	r16, 0xFC	; 252
     ea0:	1f 4f       	sbci	r17, 0xFF	; 255
     ea2:	c8 01       	movw	r24, r16
     ea4:	ca df       	rcall	.-108    	; 0xe3a <_ZN3BCD9incrementERNS_5bcd_tE>
     ea6:	c8 01       	movw	r24, r16
     ea8:	c8 df       	rcall	.-112    	; 0xe3a <_ZN3BCD9incrementERNS_5bcd_tE>
     eaa:	8f 81       	ldd	r24, Y+7	; 0x07
     eac:	81 60       	ori	r24, 0x01	; 1
     eae:	8f 83       	std	Y+7, r24	; 0x07
     eb0:	df 91       	pop	r29
     eb2:	cf 91       	pop	r28
     eb4:	1f 91       	pop	r17
     eb6:	0f 91       	pop	r16
     eb8:	08 95       	ret
     eba:	92 30       	cpi	r25, 0x02	; 2
     ebc:	11 f4       	brne	.+4      	; 0xec2 <_ZN8Internal13DCF77_Encoder14advance_minuteEv+0x5a>
     ebe:	8e 7f       	andi	r24, 0xFE	; 254
     ec0:	f6 cf       	rjmp	.-20     	; 0xeae <_ZN8Internal13DCF77_Encoder14advance_minuteEv+0x46>
     ec2:	93 32       	cpi	r25, 0x23	; 35
     ec4:	18 f4       	brcc	.+6      	; 0xecc <_ZN8Internal13DCF77_Encoder14advance_minuteEv+0x64>
     ec6:	ce 01       	movw	r24, r28
     ec8:	04 96       	adiw	r24, 0x04	; 4
     eca:	d7 cf       	rjmp	.-82     	; 0xe7a <_ZN8Internal13DCF77_Encoder14advance_minuteEv+0x12>
     ecc:	93 32       	cpi	r25, 0x23	; 35
     ece:	81 f7       	brne	.-32     	; 0xeb0 <_ZN8Internal13DCF77_Encoder14advance_minuteEv+0x48>
     ed0:	1c 82       	std	Y+4, r1	; 0x04
     ed2:	8b 81       	ldd	r24, Y+3	; 0x03
     ed4:	87 30       	cpi	r24, 0x07	; 7
     ed6:	98 f4       	brcc	.+38     	; 0xefe <_ZN8Internal13DCF77_Encoder14advance_minuteEv+0x96>
     ed8:	ce 01       	movw	r24, r28
     eda:	03 96       	adiw	r24, 0x03	; 3
     edc:	ae df       	rcall	.-164    	; 0xe3a <_ZN3BCD9incrementERNS_5bcd_tE>
     ede:	1a 81       	ldd	r17, Y+2	; 0x02
     ee0:	81 2f       	mov	r24, r17
     ee2:	82 95       	swap	r24
     ee4:	8f 70       	andi	r24, 0x0F	; 15
     ee6:	1f 70       	andi	r17, 0x0F	; 15
     ee8:	fa e0       	ldi	r31, 0x0A	; 10
     eea:	8f 9f       	mul	r24, r31
     eec:	10 0d       	add	r17, r0
     eee:	11 24       	eor	r1, r1
     ef0:	ce 01       	movw	r24, r28
     ef2:	28 de       	rcall	.-944    	; 0xb44 <_ZNK8Internal13DCF77_Encoder14days_per_monthEv>
     ef4:	18 17       	cp	r17, r24
     ef6:	40 f4       	brcc	.+16     	; 0xf08 <_ZN8Internal13DCF77_Encoder14advance_minuteEv+0xa0>
     ef8:	ce 01       	movw	r24, r28
     efa:	02 96       	adiw	r24, 0x02	; 2
     efc:	be cf       	rjmp	.-132    	; 0xe7a <_ZN8Internal13DCF77_Encoder14advance_minuteEv+0x12>
     efe:	87 30       	cpi	r24, 0x07	; 7
     f00:	71 f7       	brne	.-36     	; 0xede <_ZN8Internal13DCF77_Encoder14advance_minuteEv+0x76>
     f02:	81 e0       	ldi	r24, 0x01	; 1
     f04:	8b 83       	std	Y+3, r24	; 0x03
     f06:	eb cf       	rjmp	.-42     	; 0xede <_ZN8Internal13DCF77_Encoder14advance_minuteEv+0x76>
     f08:	18 13       	cpse	r17, r24
     f0a:	d2 cf       	rjmp	.-92     	; 0xeb0 <_ZN8Internal13DCF77_Encoder14advance_minuteEv+0x48>
     f0c:	81 e0       	ldi	r24, 0x01	; 1
     f0e:	8a 83       	std	Y+2, r24	; 0x02
     f10:	99 81       	ldd	r25, Y+1	; 0x01
     f12:	92 31       	cpi	r25, 0x12	; 18
     f14:	18 f4       	brcc	.+6      	; 0xf1c <_ZN8Internal13DCF77_Encoder14advance_minuteEv+0xb4>
     f16:	ce 01       	movw	r24, r28
     f18:	01 96       	adiw	r24, 0x01	; 1
     f1a:	af cf       	rjmp	.-162    	; 0xe7a <_ZN8Internal13DCF77_Encoder14advance_minuteEv+0x12>
     f1c:	92 31       	cpi	r25, 0x12	; 18
     f1e:	41 f6       	brne	.-112    	; 0xeb0 <_ZN8Internal13DCF77_Encoder14advance_minuteEv+0x48>
     f20:	89 83       	std	Y+1, r24	; 0x01
     f22:	88 81       	ld	r24, Y
     f24:	89 39       	cpi	r24, 0x99	; 153
     f26:	10 f4       	brcc	.+4      	; 0xf2c <_ZN8Internal13DCF77_Encoder14advance_minuteEv+0xc4>
     f28:	ce 01       	movw	r24, r28
     f2a:	a7 cf       	rjmp	.-178    	; 0xe7a <_ZN8Internal13DCF77_Encoder14advance_minuteEv+0x12>
     f2c:	89 39       	cpi	r24, 0x99	; 153
     f2e:	09 f0       	breq	.+2      	; 0xf32 <_ZN8Internal13DCF77_Encoder14advance_minuteEv+0xca>
     f30:	bf cf       	rjmp	.-130    	; 0xeb0 <_ZN8Internal13DCF77_Encoder14advance_minuteEv+0x48>
     f32:	18 82       	st	Y, r1
     f34:	bd cf       	rjmp	.-134    	; 0xeb0 <_ZN8Internal13DCF77_Encoder14advance_minuteEv+0x48>

00000f36 <_ZN8Internal22DCF77_Clock_ControllerI13ConfigurationNS_23DCF77_Frequency_ControlEE17local_clock_flushERKNS_13DCF77_EncoderE>:
     f36:	8f 92       	push	r8
     f38:	9f 92       	push	r9
     f3a:	af 92       	push	r10
     f3c:	bf 92       	push	r11
     f3e:	cf 92       	push	r12
     f40:	df 92       	push	r13
     f42:	ef 92       	push	r14
     f44:	ff 92       	push	r15
     f46:	0f 93       	push	r16
     f48:	1f 93       	push	r17
     f4a:	cf 93       	push	r28
     f4c:	df 93       	push	r29
     f4e:	cd b7       	in	r28, 0x3d	; 61
     f50:	de b7       	in	r29, 0x3e	; 62
     f52:	28 97       	sbiw	r28, 0x08	; 8
     f54:	0f b6       	in	r0, 0x3f	; 63
     f56:	f8 94       	cli
     f58:	de bf       	out	0x3e, r29	; 62
     f5a:	0f be       	out	0x3f, r0	; 63
     f5c:	cd bf       	out	0x3d, r28	; 61
     f5e:	8c 01       	movw	r16, r24
     f60:	dc 01       	movw	r26, r24
     f62:	15 96       	adiw	r26, 0x05	; 5
     f64:	8c 91       	ld	r24, X
     f66:	15 97       	sbiw	r26, 0x05	; 5
     f68:	8f 70       	andi	r24, 0x0F	; 15
     f6a:	b8 2e       	mov	r11, r24
     f6c:	16 96       	adiw	r26, 0x06	; 6
     f6e:	ec 91       	ld	r30, X
     f70:	e0 90 fa 05 	lds	r14, 0x05FA	; 0x8005fa <_ZN8Internal23DCF77_Frequency_Control17deviation_trackerE+0x2>
     f74:	f0 90 fb 05 	lds	r15, 0x05FB	; 0x8005fb <_ZN8Internal23DCF77_Frequency_Control17deviation_trackerE+0x3>
     f78:	2e 2f       	mov	r18, r30
     f7a:	30 e0       	ldi	r19, 0x00	; 0
     f7c:	50 e0       	ldi	r21, 0x00	; 0
     f7e:	40 e0       	ldi	r20, 0x00	; 0
     f80:	25 50       	subi	r18, 0x05	; 5
     f82:	31 09       	sbc	r19, r1
     f84:	41 09       	sbc	r20, r1
     f86:	51 09       	sbc	r21, r1
     f88:	ac e9       	ldi	r26, 0x9C	; 156
     f8a:	bf ef       	ldi	r27, 0xFF	; 255
     f8c:	0e 94 41 28 	call	0x5082	; 0x5082 <__mulohisi3>
     f90:	9b 01       	movw	r18, r22
     f92:	ac 01       	movw	r20, r24
     f94:	2e 0d       	add	r18, r14
     f96:	3f 1d       	adc	r19, r15
     f98:	41 1d       	adc	r20, r1
     f9a:	51 1d       	adc	r21, r1
     f9c:	69 01       	movw	r12, r18
     f9e:	7a 01       	movw	r14, r20
     fa0:	2b 2d       	mov	r18, r11
     fa2:	30 e0       	ldi	r19, 0x00	; 0
     fa4:	50 e0       	ldi	r21, 0x00	; 0
     fa6:	40 e0       	ldi	r20, 0x00	; 0
     fa8:	80 91 fc 05 	lds	r24, 0x05FC	; 0x8005fc <_ZN8Internal23DCF77_Frequency_Control17deviation_trackerE+0x4>
     fac:	28 1b       	sub	r18, r24
     fae:	31 09       	sbc	r19, r1
     fb0:	41 09       	sbc	r20, r1
     fb2:	51 09       	sbc	r21, r1
     fb4:	a0 e9       	ldi	r26, 0x90	; 144
     fb6:	b8 ee       	ldi	r27, 0xE8	; 232
     fb8:	0e 94 41 28 	call	0x5082	; 0x5082 <__mulohisi3>
     fbc:	c6 0e       	add	r12, r22
     fbe:	d7 1e       	adc	r13, r23
     fc0:	e8 1e       	adc	r14, r24
     fc2:	f9 1e       	adc	r15, r25
     fc4:	31 e3       	ldi	r19, 0x31	; 49
     fc6:	c3 16       	cp	r12, r19
     fc8:	35 e7       	ldi	r19, 0x75	; 117
     fca:	d3 06       	cpc	r13, r19
     fcc:	e1 04       	cpc	r14, r1
     fce:	f1 04       	cpc	r15, r1
     fd0:	3c f0       	brlt	.+14     	; 0xfe0 <_ZN8Internal22DCF77_Clock_ControllerI13ConfigurationNS_23DCF77_Frequency_ControlEE17local_clock_flushERKNS_13DCF77_EncoderE+0xaa>
     fd2:	40 e6       	ldi	r20, 0x60	; 96
     fd4:	c4 1a       	sub	r12, r20
     fd6:	4a ee       	ldi	r20, 0xEA	; 234
     fd8:	d4 0a       	sbc	r13, r20
     fda:	e1 08       	sbc	r14, r1
     fdc:	f1 08       	sbc	r15, r1
     fde:	f2 cf       	rjmp	.-28     	; 0xfc4 <_ZN8Internal22DCF77_Clock_ControllerI13ConfigurationNS_23DCF77_Frequency_ControlEE17local_clock_flushERKNS_13DCF77_EncoderE+0x8e>
     fe0:	51 ed       	ldi	r21, 0xD1	; 209
     fe2:	c5 16       	cp	r12, r21
     fe4:	5a e8       	ldi	r21, 0x8A	; 138
     fe6:	d5 06       	cpc	r13, r21
     fe8:	5f ef       	ldi	r21, 0xFF	; 255
     fea:	e5 06       	cpc	r14, r21
     fec:	f5 06       	cpc	r15, r21
     fee:	3c f4       	brge	.+14     	; 0xffe <_ZN8Internal22DCF77_Clock_ControllerI13ConfigurationNS_23DCF77_Frequency_ControlEE17local_clock_flushERKNS_13DCF77_EncoderE+0xc8>
     ff0:	80 e6       	ldi	r24, 0x60	; 96
     ff2:	c8 0e       	add	r12, r24
     ff4:	8a ee       	ldi	r24, 0xEA	; 234
     ff6:	d8 1e       	adc	r13, r24
     ff8:	e1 1c       	adc	r14, r1
     ffa:	f1 1c       	adc	r15, r1
     ffc:	f1 cf       	rjmp	.-30     	; 0xfe0 <_ZN8Internal22DCF77_Clock_ControllerI13ConfigurationNS_23DCF77_Frequency_ControlEE17local_clock_flushERKNS_13DCF77_EncoderE+0xaa>
     ffe:	d0 92 58 03 	sts	0x0358, r13	; 0x800358 <_ZN8Internal23DCF77_Frequency_Control9deviationE+0x1>
    1002:	c0 92 57 03 	sts	0x0357, r12	; 0x800357 <_ZN8Internal23DCF77_Frequency_Control9deviationE>
    1006:	e5 30       	cpi	r30, 0x05	; 5
    1008:	09 f0       	breq	.+2      	; 0x100c <_ZN8Internal22DCF77_Clock_ControllerI13ConfigurationNS_23DCF77_Frequency_ControlEE17local_clock_flushERKNS_13DCF77_EncoderE+0xd6>
    100a:	85 c0       	rjmp	.+266    	; 0x1116 <_ZN8Internal22DCF77_Clock_ControllerI13ConfigurationNS_23DCF77_Frequency_ControlEE17local_clock_flushERKNS_13DCF77_EncoderE+0x1e0>
    100c:	61 e0       	ldi	r22, 0x01	; 1
    100e:	c8 01       	movw	r24, r16
    1010:	95 dc       	rcall	.-1750   	; 0x93c <_ZNK8Internal13DCF77_Encoder28verify_leap_second_scheduledEb>
    1012:	88 23       	and	r24, r24
    1014:	29 f0       	breq	.+10     	; 0x1020 <_ZN8Internal22DCF77_Clock_ControllerI13ConfigurationNS_23DCF77_Frequency_ControlEE17local_clock_flushERKNS_13DCF77_EncoderE+0xea>
    1016:	80 91 56 03 	lds	r24, 0x0356	; 0x800356 <_ZN8Internal23DCF77_Frequency_Control17calibration_stateE>
    101a:	8d 7f       	andi	r24, 0xFD	; 253
    101c:	80 93 56 03 	sts	0x0356, r24	; 0x800356 <_ZN8Internal23DCF77_Frequency_Control17calibration_stateE>
    1020:	80 91 56 03 	lds	r24, 0x0356	; 0x800356 <_ZN8Internal23DCF77_Frequency_Control17calibration_stateE>
    1024:	81 ff       	sbrs	r24, 1
    1026:	21 c1       	rjmp	.+578    	; 0x126a <_ZN8Internal22DCF77_Clock_ControllerI13ConfigurationNS_23DCF77_Frequency_ControlEE17local_clock_flushERKNS_13DCF77_EncoderE+0x334>
    1028:	80 91 56 03 	lds	r24, 0x0356	; 0x800356 <_ZN8Internal23DCF77_Frequency_Control17calibration_stateE>
    102c:	80 ff       	sbrs	r24, 0
    102e:	15 c1       	rjmp	.+554    	; 0x125a <_ZN8Internal22DCF77_Clock_ControllerI13ConfigurationNS_23DCF77_Frequency_ControlEE17local_clock_flushERKNS_13DCF77_EncoderE+0x324>
    1030:	80 91 f8 05 	lds	r24, 0x05F8	; 0x8005f8 <_ZN8Internal23DCF77_Frequency_Control17deviation_trackerE>
    1034:	90 91 f9 05 	lds	r25, 0x05F9	; 0x8005f9 <_ZN8Internal23DCF77_Frequency_Control17deviation_trackerE+0x1>
    1038:	8e 34       	cpi	r24, 0x4E	; 78
    103a:	91 40       	sbci	r25, 0x01	; 1
    103c:	08 f4       	brcc	.+2      	; 0x1040 <_ZN8Internal22DCF77_Clock_ControllerI13ConfigurationNS_23DCF77_Frequency_ControlEE17local_clock_flushERKNS_13DCF77_EncoderE+0x10a>
    103e:	f2 c0       	rjmp	.+484    	; 0x1224 <_ZN8Internal22DCF77_Clock_ControllerI13ConfigurationNS_23DCF77_Frequency_ControlEE17local_clock_flushERKNS_13DCF77_EncoderE+0x2ee>
    1040:	80 91 57 03 	lds	r24, 0x0357	; 0x800357 <_ZN8Internal23DCF77_Frequency_Control9deviationE>
    1044:	90 91 58 03 	lds	r25, 0x0358	; 0x800358 <_ZN8Internal23DCF77_Frequency_Control9deviationE+0x1>
    1048:	18 16       	cp	r1, r24
    104a:	19 06       	cpc	r1, r25
    104c:	0c f4       	brge	.+2      	; 0x1050 <_ZN8Internal22DCF77_Clock_ControllerI13ConfigurationNS_23DCF77_Frequency_ControlEE17local_clock_flushERKNS_13DCF77_EncoderE+0x11a>
    104e:	e3 c0       	rjmp	.+454    	; 0x1216 <_ZN8Internal22DCF77_Clock_ControllerI13ConfigurationNS_23DCF77_Frequency_ControlEE17local_clock_flushERKNS_13DCF77_EncoderE+0x2e0>
    1050:	80 91 57 03 	lds	r24, 0x0357	; 0x800357 <_ZN8Internal23DCF77_Frequency_Control9deviationE>
    1054:	90 91 58 03 	lds	r25, 0x0358	; 0x800358 <_ZN8Internal23DCF77_Frequency_Control9deviationE+0x1>
    1058:	8c 3f       	cpi	r24, 0xFC	; 252
    105a:	9f 4f       	sbci	r25, 0xFF	; 255
    105c:	0c f0       	brlt	.+2      	; 0x1060 <_ZN8Internal22DCF77_Clock_ControllerI13ConfigurationNS_23DCF77_Frequency_ControlEE17local_clock_flushERKNS_13DCF77_EncoderE+0x12a>
    105e:	e2 c0       	rjmp	.+452    	; 0x1224 <_ZN8Internal22DCF77_Clock_ControllerI13ConfigurationNS_23DCF77_Frequency_ControlEE17local_clock_flushERKNS_13DCF77_EncoderE+0x2ee>
    1060:	8f b7       	in	r24, 0x3f	; 63
    1062:	f8 94       	cli
    1064:	e0 90 53 03 	lds	r14, 0x0353	; 0x800353 <_ZN8Internal23Generic_1_kHz_GeneratorL12adjust_pp16mE>
    1068:	f0 90 54 03 	lds	r15, 0x0354	; 0x800354 <_ZN8Internal23Generic_1_kHz_GeneratorL12adjust_pp16mE+0x1>
    106c:	8f bf       	out	0x3f, r24	; 63
    106e:	a0 91 57 03 	lds	r26, 0x0357	; 0x800357 <_ZN8Internal23DCF77_Frequency_Control9deviationE>
    1072:	b0 91 58 03 	lds	r27, 0x0358	; 0x800358 <_ZN8Internal23DCF77_Frequency_Control9deviationE+0x1>
    1076:	40 91 f8 05 	lds	r20, 0x05F8	; 0x8005f8 <_ZN8Internal23DCF77_Frequency_Control17deviation_trackerE>
    107a:	50 91 f9 05 	lds	r21, 0x05F9	; 0x8005f9 <_ZN8Internal23DCF77_Frequency_Control17deviation_trackerE+0x1>
    107e:	2a e6       	ldi	r18, 0x6A	; 106
    1080:	3a e0       	ldi	r19, 0x0A	; 10
    1082:	0e 94 39 28 	call	0x5072	; 0x5072 <__usmulhisi3>
    1086:	9a 01       	movw	r18, r20
    1088:	50 e0       	ldi	r21, 0x00	; 0
    108a:	40 e0       	ldi	r20, 0x00	; 0
    108c:	0e 94 08 28 	call	0x5010	; 0x5010 <__divmodsi4>
    1090:	49 01       	movw	r8, r18
    1092:	80 91 f8 05 	lds	r24, 0x05F8	; 0x8005f8 <_ZN8Internal23DCF77_Frequency_Control17deviation_trackerE>
    1096:	90 91 f9 05 	lds	r25, 0x05F9	; 0x8005f9 <_ZN8Internal23DCF77_Frequency_Control17deviation_trackerE+0x1>
    109a:	60 91 f8 05 	lds	r22, 0x05F8	; 0x8005f8 <_ZN8Internal23DCF77_Frequency_Control17deviation_trackerE>
    109e:	70 91 f9 05 	lds	r23, 0x05F9	; 0x8005f9 <_ZN8Internal23DCF77_Frequency_Control17deviation_trackerE+0x1>
    10a2:	87 59       	subi	r24, 0x97	; 151
    10a4:	95 4f       	sbci	r25, 0xF5	; 245
    10a6:	0e 94 e1 27 	call	0x4fc2	; 0x4fc2 <__udivmodhi4>
    10aa:	60 93 55 03 	sts	0x0355, r22	; 0x800355 <_ZN8Internal23DCF77_Frequency_Control19confirmed_precisionE>
    10ae:	80 91 55 03 	lds	r24, 0x0355	; 0x800355 <_ZN8Internal23DCF77_Frequency_Control19confirmed_precisionE>
    10b2:	81 11       	cpse	r24, r1
    10b4:	03 c0       	rjmp	.+6      	; 0x10bc <_ZN8Internal22DCF77_Clock_ControllerI13ConfigurationNS_23DCF77_Frequency_ControlEE17local_clock_flushERKNS_13DCF77_EncoderE+0x186>
    10b6:	81 e0       	ldi	r24, 0x01	; 1
    10b8:	80 93 55 03 	sts	0x0355, r24	; 0x800355 <_ZN8Internal23DCF77_Frequency_Control19confirmed_precisionE>
    10bc:	c7 01       	movw	r24, r14
    10be:	88 19       	sub	r24, r8
    10c0:	99 09       	sbc	r25, r9
    10c2:	80 33       	cpi	r24, 0x30	; 48
    10c4:	f8 ef       	ldi	r31, 0xF8	; 248
    10c6:	9f 07       	cpc	r25, r31
    10c8:	14 f4       	brge	.+4      	; 0x10ce <_ZN8Internal22DCF77_Clock_ControllerI13ConfigurationNS_23DCF77_Frequency_ControlEE17local_clock_flushERKNS_13DCF77_EncoderE+0x198>
    10ca:	80 e3       	ldi	r24, 0x30	; 48
    10cc:	98 ef       	ldi	r25, 0xF8	; 248
    10ce:	2f b7       	in	r18, 0x3f	; 63
    10d0:	f8 94       	cli
    10d2:	81 3d       	cpi	r24, 0xD1	; 209
    10d4:	37 e0       	ldi	r19, 0x07	; 7
    10d6:	93 07       	cpc	r25, r19
    10d8:	14 f0       	brlt	.+4      	; 0x10de <_ZN8Internal22DCF77_Clock_ControllerI13ConfigurationNS_23DCF77_Frequency_ControlEE17local_clock_flushERKNS_13DCF77_EncoderE+0x1a8>
    10da:	80 ed       	ldi	r24, 0xD0	; 208
    10dc:	97 e0       	ldi	r25, 0x07	; 7
    10de:	90 93 54 03 	sts	0x0354, r25	; 0x800354 <_ZN8Internal23Generic_1_kHz_GeneratorL12adjust_pp16mE+0x1>
    10e2:	80 93 53 03 	sts	0x0353, r24	; 0x800353 <_ZN8Internal23Generic_1_kHz_GeneratorL12adjust_pp16mE>
    10e6:	2f bf       	out	0x3f, r18	; 63
    10e8:	88 eb       	ldi	r24, 0xB8	; 184
    10ea:	9b e0       	ldi	r25, 0x0B	; 11
    10ec:	90 93 dd 05 	sts	0x05DD, r25	; 0x8005dd <_ZN8Internal22DCF77_Clock_ControllerI13ConfigurationNS_23DCF77_Frequency_ControlEE11DemodulatorE+0xd3>
    10f0:	80 93 dc 05 	sts	0x05DC, r24	; 0x8005dc <_ZN8Internal22DCF77_Clock_ControllerI13ConfigurationNS_23DCF77_Frequency_ControlEE11DemodulatorE+0xd2>
    10f4:	80 e3       	ldi	r24, 0x30	; 48
    10f6:	95 e7       	ldi	r25, 0x75	; 117
    10f8:	a0 e0       	ldi	r26, 0x00	; 0
    10fa:	b0 e0       	ldi	r27, 0x00	; 0
    10fc:	80 93 6a 03 	sts	0x036A, r24	; 0x80036a <_ZN8Internal22DCF77_Clock_ControllerI13ConfigurationNS_23DCF77_Frequency_ControlEE11Local_ClockE+0x11>
    1100:	90 93 6b 03 	sts	0x036B, r25	; 0x80036b <_ZN8Internal22DCF77_Clock_ControllerI13ConfigurationNS_23DCF77_Frequency_ControlEE11Local_ClockE+0x12>
    1104:	a0 93 6c 03 	sts	0x036C, r26	; 0x80036c <_ZN8Internal22DCF77_Clock_ControllerI13ConfigurationNS_23DCF77_Frequency_ControlEE11Local_ClockE+0x13>
    1108:	b0 93 6d 03 	sts	0x036D, r27	; 0x80036d <_ZN8Internal22DCF77_Clock_ControllerI13ConfigurationNS_23DCF77_Frequency_ControlEE11Local_ClockE+0x14>
    110c:	80 91 56 03 	lds	r24, 0x0356	; 0x800356 <_ZN8Internal23DCF77_Frequency_Control17calibration_stateE>
    1110:	8d 7f       	andi	r24, 0xFD	; 253
    1112:	80 93 56 03 	sts	0x0356, r24	; 0x800356 <_ZN8Internal23DCF77_Frequency_Control17calibration_stateE>
    1116:	d8 01       	movw	r26, r16
    1118:	16 96       	adiw	r26, 0x06	; 6
    111a:	8c 91       	ld	r24, X
    111c:	8f 30       	cpi	r24, 0x0F	; 15
    111e:	09 f0       	breq	.+2      	; 0x1122 <_ZN8Internal22DCF77_Clock_ControllerI13ConfigurationNS_23DCF77_Frequency_ControlEE17local_clock_flushERKNS_13DCF77_EncoderE+0x1ec>
    1120:	89 c0       	rjmp	.+274    	; 0x1234 <_ZN8Internal22DCF77_Clock_ControllerI13ConfigurationNS_23DCF77_Frequency_ControlEE17local_clock_flushERKNS_13DCF77_EncoderE+0x2fe>
    1122:	80 91 59 03 	lds	r24, 0x0359	; 0x800359 <_ZN8Internal22DCF77_Clock_ControllerI13ConfigurationNS_23DCF77_Frequency_ControlEE11Local_ClockE>
    1126:	90 91 5a 03 	lds	r25, 0x035A	; 0x80035a <_ZN8Internal22DCF77_Clock_ControllerI13ConfigurationNS_23DCF77_Frequency_ControlEE11Local_ClockE+0x1>
    112a:	02 97       	sbiw	r24, 0x02	; 2
    112c:	08 f4       	brcc	.+2      	; 0x1130 <_ZN8Internal22DCF77_Clock_ControllerI13ConfigurationNS_23DCF77_Frequency_ControlEE17local_clock_flushERKNS_13DCF77_EncoderE+0x1fa>
    112e:	82 c0       	rjmp	.+260    	; 0x1234 <_ZN8Internal22DCF77_Clock_ControllerI13ConfigurationNS_23DCF77_Frequency_ControlEE17local_clock_flushERKNS_13DCF77_EncoderE+0x2fe>
    1130:	88 e0       	ldi	r24, 0x08	; 8
    1132:	f8 01       	movw	r30, r16
    1134:	de 01       	movw	r26, r28
    1136:	11 96       	adiw	r26, 0x01	; 1
    1138:	01 90       	ld	r0, Z+
    113a:	0d 92       	st	X+, r0
    113c:	8a 95       	dec	r24
    113e:	e1 f7       	brne	.-8      	; 0x1138 <_ZN8Internal22DCF77_Clock_ControllerI13ConfigurationNS_23DCF77_Frequency_ControlEE17local_clock_flushERKNS_13DCF77_EncoderE+0x202>
    1140:	ce 01       	movw	r24, r28
    1142:	01 96       	adiw	r24, 0x01	; 1
    1144:	91 de       	rcall	.-734    	; 0xe68 <_ZN8Internal13DCF77_Encoder14advance_minuteEv>
    1146:	ce 01       	movw	r24, r28
    1148:	01 96       	adiw	r24, 0x01	; 1
    114a:	76 dc       	rcall	.-1812   	; 0xa38 <_ZN8Internal13DCF77_Encoder20autoset_control_bitsEv>
    114c:	98 85       	ldd	r25, Y+8	; 0x08
    114e:	88 e0       	ldi	r24, 0x08	; 8
    1150:	92 ff       	sbrs	r25, 2
    1152:	80 e0       	ldi	r24, 0x00	; 0
    1154:	90 ff       	sbrs	r25, 0
    1156:	a1 c0       	rjmp	.+322    	; 0x129a <_ZN8Internal22DCF77_Clock_ControllerI13ConfigurationNS_23DCF77_Frequency_ControlEE17local_clock_flushERKNS_13DCF77_EncoderE+0x364>
    1158:	80 61       	ori	r24, 0x10	; 16
    115a:	93 fd       	sbrc	r25, 3
    115c:	80 64       	ori	r24, 0x40	; 64
    115e:	80 68       	ori	r24, 0x80	; 128
    1160:	80 93 f7 03 	sts	0x03F7, r24	; 0x8003f7 <_ZN8Internal22DCF77_Clock_ControllerI13ConfigurationNS_23DCF77_Frequency_ControlEE14Second_DecoderE+0x40>
    1164:	1e 81       	ldd	r17, Y+6	; 0x06
    1166:	81 2f       	mov	r24, r17
    1168:	33 dd       	rcall	.-1434   	; 0xbd0 <_ZN8Internal16Arithmetic_Tools6parityEh>
    116a:	88 23       	and	r24, r24
    116c:	09 f4       	brne	.+2      	; 0x1170 <_ZN8Internal22DCF77_Clock_ControllerI13ConfigurationNS_23DCF77_Frequency_ControlEE17local_clock_flushERKNS_13DCF77_EncoderE+0x23a>
    116e:	8f c0       	rjmp	.+286    	; 0x128e <_ZN8Internal22DCF77_Clock_ControllerI13ConfigurationNS_23DCF77_Frequency_ControlEE17local_clock_flushERKNS_13DCF77_EncoderE+0x358>
    1170:	10 68       	ori	r17, 0x80	; 128
    1172:	10 93 f8 03 	sts	0x03F8, r17	; 0x8003f8 <_ZN8Internal22DCF77_Clock_ControllerI13ConfigurationNS_23DCF77_Frequency_ControlEE14Second_DecoderE+0x41>
    1176:	1d 81       	ldd	r17, Y+5	; 0x05
    1178:	81 2f       	mov	r24, r17
    117a:	2a dd       	rcall	.-1452   	; 0xbd0 <_ZN8Internal16Arithmetic_Tools6parityEh>
    117c:	88 23       	and	r24, r24
    117e:	09 f4       	brne	.+2      	; 0x1182 <_ZN8Internal22DCF77_Clock_ControllerI13ConfigurationNS_23DCF77_Frequency_ControlEE17local_clock_flushERKNS_13DCF77_EncoderE+0x24c>
    1180:	88 c0       	rjmp	.+272    	; 0x1292 <_ZN8Internal22DCF77_Clock_ControllerI13ConfigurationNS_23DCF77_Frequency_ControlEE17local_clock_flushERKNS_13DCF77_EncoderE+0x35c>
    1182:	10 64       	ori	r17, 0x40	; 64
    1184:	8b 81       	ldd	r24, Y+3	; 0x03
    1186:	80 ff       	sbrs	r24, 0
    1188:	86 c0       	rjmp	.+268    	; 0x1296 <_ZN8Internal22DCF77_Clock_ControllerI13ConfigurationNS_23DCF77_Frequency_ControlEE17local_clock_flushERKNS_13DCF77_EncoderE+0x360>
    118a:	10 68       	ori	r17, 0x80	; 128
    118c:	10 93 f9 03 	sts	0x03F9, r17	; 0x8003f9 <_ZN8Internal22DCF77_Clock_ControllerI13ConfigurationNS_23DCF77_Frequency_ControlEE14Second_DecoderE+0x42>
    1190:	bc 80       	ldd	r11, Y+4	; 0x04
    1192:	cb 80       	ldd	r12, Y+3	; 0x03
    1194:	8c 2d       	mov	r24, r12
    1196:	86 95       	lsr	r24
    1198:	b0 e2       	ldi	r27, 0x20	; 32
    119a:	bb 9e       	mul	r11, r27
    119c:	90 01       	movw	r18, r0
    119e:	11 24       	eor	r1, r1
    11a0:	82 2b       	or	r24, r18
    11a2:	80 93 fa 03 	sts	0x03FA, r24	; 0x8003fa <_ZN8Internal22DCF77_Clock_ControllerI13ConfigurationNS_23DCF77_Frequency_ControlEE14Second_DecoderE+0x43>
    11a6:	09 81       	ldd	r16, Y+1	; 0x01
    11a8:	e0 2e       	mov	r14, r16
    11aa:	f1 2c       	mov	r15, r1
    11ac:	c7 01       	movw	r24, r14
    11ae:	25 e0       	ldi	r18, 0x05	; 5
    11b0:	88 0f       	add	r24, r24
    11b2:	99 1f       	adc	r25, r25
    11b4:	2a 95       	dec	r18
    11b6:	e1 f7       	brne	.-8      	; 0x11b0 <_ZN8Internal22DCF77_Clock_ControllerI13ConfigurationNS_23DCF77_Frequency_ControlEE17local_clock_flushERKNS_13DCF77_EncoderE+0x27a>
    11b8:	da 80       	ldd	r13, Y+2	; 0x02
    11ba:	8d 29       	or	r24, r13
    11bc:	80 93 fb 03 	sts	0x03FB, r24	; 0x8003fb <_ZN8Internal22DCF77_Clock_ControllerI13ConfigurationNS_23DCF77_Frequency_ControlEE14Second_DecoderE+0x44>
    11c0:	8c 2d       	mov	r24, r12
    11c2:	8f 70       	andi	r24, 0x0F	; 15
    11c4:	05 dd       	rcall	.-1526   	; 0xbd0 <_ZN8Internal16Arithmetic_Tools6parityEh>
    11c6:	18 2f       	mov	r17, r24
    11c8:	8c 2d       	mov	r24, r12
    11ca:	82 95       	swap	r24
    11cc:	8f 70       	andi	r24, 0x0F	; 15
    11ce:	00 dd       	rcall	.-1536   	; 0xbd0 <_ZN8Internal16Arithmetic_Tools6parityEh>
    11d0:	18 27       	eor	r17, r24
    11d2:	8d 2d       	mov	r24, r13
    11d4:	8f 70       	andi	r24, 0x0F	; 15
    11d6:	fc dc       	rcall	.-1544   	; 0xbd0 <_ZN8Internal16Arithmetic_Tools6parityEh>
    11d8:	18 27       	eor	r17, r24
    11da:	8d 2d       	mov	r24, r13
    11dc:	82 95       	swap	r24
    11de:	8f 70       	andi	r24, 0x0F	; 15
    11e0:	f7 dc       	rcall	.-1554   	; 0xbd0 <_ZN8Internal16Arithmetic_Tools6parityEh>
    11e2:	18 27       	eor	r17, r24
    11e4:	8b 2d       	mov	r24, r11
    11e6:	f4 dc       	rcall	.-1560   	; 0xbd0 <_ZN8Internal16Arithmetic_Tools6parityEh>
    11e8:	18 27       	eor	r17, r24
    11ea:	80 2f       	mov	r24, r16
    11ec:	8f 70       	andi	r24, 0x0F	; 15
    11ee:	f0 dc       	rcall	.-1568   	; 0xbd0 <_ZN8Internal16Arithmetic_Tools6parityEh>
    11f0:	18 27       	eor	r17, r24
    11f2:	80 2f       	mov	r24, r16
    11f4:	82 95       	swap	r24
    11f6:	8f 70       	andi	r24, 0x0F	; 15
    11f8:	eb dc       	rcall	.-1578   	; 0xbd0 <_ZN8Internal16Arithmetic_Tools6parityEh>
    11fa:	33 e0       	ldi	r19, 0x03	; 3
    11fc:	f5 94       	asr	r15
    11fe:	e7 94       	ror	r14
    1200:	3a 95       	dec	r19
    1202:	e1 f7       	brne	.-8      	; 0x11fc <_ZN8Internal22DCF77_Clock_ControllerI13ConfigurationNS_23DCF77_Frequency_ControlEE17local_clock_flushERKNS_13DCF77_EncoderE+0x2c6>
    1204:	18 17       	cp	r17, r24
    1206:	11 f0       	breq	.+4      	; 0x120c <_ZN8Internal22DCF77_Clock_ControllerI13ConfigurationNS_23DCF77_Frequency_ControlEE17local_clock_flushERKNS_13DCF77_EncoderE+0x2d6>
    1208:	68 94       	set
    120a:	e5 f8       	bld	r14, 5
    120c:	e0 92 fc 03 	sts	0x03FC, r14	; 0x8003fc <_ZN8Internal22DCF77_Clock_ControllerI13ConfigurationNS_23DCF77_Frequency_ControlEE14Second_DecoderE+0x45>
    1210:	10 92 fd 03 	sts	0x03FD, r1	; 0x8003fd <_ZN8Internal22DCF77_Clock_ControllerI13ConfigurationNS_23DCF77_Frequency_ControlEE14Second_DecoderE+0x46>
    1214:	0f c0       	rjmp	.+30     	; 0x1234 <_ZN8Internal22DCF77_Clock_ControllerI13ConfigurationNS_23DCF77_Frequency_ControlEE17local_clock_flushERKNS_13DCF77_EncoderE+0x2fe>
    1216:	80 91 57 03 	lds	r24, 0x0357	; 0x800357 <_ZN8Internal23DCF77_Frequency_Control9deviationE>
    121a:	90 91 58 03 	lds	r25, 0x0358	; 0x800358 <_ZN8Internal23DCF77_Frequency_Control9deviationE+0x1>
    121e:	05 97       	sbiw	r24, 0x05	; 5
    1220:	0c f0       	brlt	.+2      	; 0x1224 <_ZN8Internal22DCF77_Clock_ControllerI13ConfigurationNS_23DCF77_Frequency_ControlEE17local_clock_flushERKNS_13DCF77_EncoderE+0x2ee>
    1222:	1e cf       	rjmp	.-452    	; 0x1060 <_ZN8Internal22DCF77_Clock_ControllerI13ConfigurationNS_23DCF77_Frequency_ControlEE17local_clock_flushERKNS_13DCF77_EncoderE+0x12a>
    1224:	80 91 f8 05 	lds	r24, 0x05F8	; 0x8005f8 <_ZN8Internal23DCF77_Frequency_Control17deviation_trackerE>
    1228:	90 91 f9 05 	lds	r25, 0x05F9	; 0x8005f9 <_ZN8Internal23DCF77_Frequency_Control17deviation_trackerE+0x1>
    122c:	86 3d       	cpi	r24, 0xD6	; 214
    122e:	94 41       	sbci	r25, 0x14	; 20
    1230:	08 f0       	brcs	.+2      	; 0x1234 <_ZN8Internal22DCF77_Clock_ControllerI13ConfigurationNS_23DCF77_Frequency_ControlEE17local_clock_flushERKNS_13DCF77_EncoderE+0x2fe>
    1232:	16 cf       	rjmp	.-468    	; 0x1060 <_ZN8Internal22DCF77_Clock_ControllerI13ConfigurationNS_23DCF77_Frequency_ControlEE17local_clock_flushERKNS_13DCF77_EncoderE+0x12a>
    1234:	28 96       	adiw	r28, 0x08	; 8
    1236:	0f b6       	in	r0, 0x3f	; 63
    1238:	f8 94       	cli
    123a:	de bf       	out	0x3e, r29	; 62
    123c:	0f be       	out	0x3f, r0	; 63
    123e:	cd bf       	out	0x3d, r28	; 61
    1240:	df 91       	pop	r29
    1242:	cf 91       	pop	r28
    1244:	1f 91       	pop	r17
    1246:	0f 91       	pop	r16
    1248:	ff 90       	pop	r15
    124a:	ef 90       	pop	r14
    124c:	df 90       	pop	r13
    124e:	cf 90       	pop	r12
    1250:	bf 90       	pop	r11
    1252:	af 90       	pop	r10
    1254:	9f 90       	pop	r9
    1256:	8f 90       	pop	r8
    1258:	08 95       	ret
    125a:	80 91 f8 05 	lds	r24, 0x05F8	; 0x8005f8 <_ZN8Internal23DCF77_Frequency_Control17deviation_trackerE>
    125e:	90 91 f9 05 	lds	r25, 0x05F9	; 0x8005f9 <_ZN8Internal23DCF77_Frequency_Control17deviation_trackerE+0x1>
    1262:	86 3d       	cpi	r24, 0xD6	; 214
    1264:	94 41       	sbci	r25, 0x14	; 20
    1266:	30 f3       	brcs	.-52     	; 0x1234 <_ZN8Internal22DCF77_Clock_ControllerI13ConfigurationNS_23DCF77_Frequency_ControlEE17local_clock_flushERKNS_13DCF77_EncoderE+0x2fe>
    1268:	51 cf       	rjmp	.-350    	; 0x110c <_ZN8Internal22DCF77_Clock_ControllerI13ConfigurationNS_23DCF77_Frequency_ControlEE17local_clock_flushERKNS_13DCF77_EncoderE+0x1d6>
    126a:	80 91 56 03 	lds	r24, 0x0356	; 0x800356 <_ZN8Internal23DCF77_Frequency_Control17calibration_stateE>
    126e:	80 ff       	sbrs	r24, 0
    1270:	e1 cf       	rjmp	.-62     	; 0x1234 <_ZN8Internal22DCF77_Clock_ControllerI13ConfigurationNS_23DCF77_Frequency_ControlEE17local_clock_flushERKNS_13DCF77_EncoderE+0x2fe>
    1272:	10 92 fb 05 	sts	0x05FB, r1	; 0x8005fb <_ZN8Internal23DCF77_Frequency_Control17deviation_trackerE+0x3>
    1276:	10 92 fa 05 	sts	0x05FA, r1	; 0x8005fa <_ZN8Internal23DCF77_Frequency_Control17deviation_trackerE+0x2>
    127a:	10 92 f9 05 	sts	0x05F9, r1	; 0x8005f9 <_ZN8Internal23DCF77_Frequency_Control17deviation_trackerE+0x1>
    127e:	10 92 f8 05 	sts	0x05F8, r1	; 0x8005f8 <_ZN8Internal23DCF77_Frequency_Control17deviation_trackerE>
    1282:	b0 92 fc 05 	sts	0x05FC, r11	; 0x8005fc <_ZN8Internal23DCF77_Frequency_Control17deviation_trackerE+0x4>
    1286:	80 91 56 03 	lds	r24, 0x0356	; 0x800356 <_ZN8Internal23DCF77_Frequency_Control17calibration_stateE>
    128a:	82 60       	ori	r24, 0x02	; 2
    128c:	42 cf       	rjmp	.-380    	; 0x1112 <_ZN8Internal22DCF77_Clock_ControllerI13ConfigurationNS_23DCF77_Frequency_ControlEE17local_clock_flushERKNS_13DCF77_EncoderE+0x1dc>
    128e:	1f 77       	andi	r17, 0x7F	; 127
    1290:	70 cf       	rjmp	.-288    	; 0x1172 <_ZN8Internal22DCF77_Clock_ControllerI13ConfigurationNS_23DCF77_Frequency_ControlEE17local_clock_flushERKNS_13DCF77_EncoderE+0x23c>
    1292:	1f 7b       	andi	r17, 0xBF	; 191
    1294:	77 cf       	rjmp	.-274    	; 0x1184 <_ZN8Internal22DCF77_Clock_ControllerI13ConfigurationNS_23DCF77_Frequency_ControlEE17local_clock_flushERKNS_13DCF77_EncoderE+0x24e>
    1296:	1f 77       	andi	r17, 0x7F	; 127
    1298:	79 cf       	rjmp	.-270    	; 0x118c <_ZN8Internal22DCF77_Clock_ControllerI13ConfigurationNS_23DCF77_Frequency_ControlEE17local_clock_flushERKNS_13DCF77_EncoderE+0x256>
    129a:	80 62       	ori	r24, 0x20	; 32
    129c:	5e cf       	rjmp	.-324    	; 0x115a <_ZN8Internal22DCF77_Clock_ControllerI13ConfigurationNS_23DCF77_Frequency_ControlEE17local_clock_flushERKNS_13DCF77_EncoderE+0x224>

0000129e <_ZN8Internal13DCF77_Encoder14advance_secondEv>:
    129e:	fc 01       	movw	r30, r24
    12a0:	86 81       	ldd	r24, Z+6	; 0x06
    12a2:	8b 33       	cpi	r24, 0x3B	; 59
    12a4:	30 f4       	brcc	.+12     	; 0x12b2 <_ZN8Internal13DCF77_Encoder14advance_secondEv+0x14>
    12a6:	8f 5f       	subi	r24, 0xFF	; 255
    12a8:	86 83       	std	Z+6, r24	; 0x06
    12aa:	8f 30       	cpi	r24, 0x0F	; 15
    12ac:	b1 f4       	brne	.+44     	; 0x12da <_ZN8Internal13DCF77_Encoder14advance_secondEv+0x3c>
    12ae:	cf 01       	movw	r24, r30
    12b0:	c3 cb       	rjmp	.-2170   	; 0xa38 <_ZN8Internal13DCF77_Encoder20autoset_control_bitsEv>
    12b2:	97 81       	ldd	r25, Z+7	; 0x07
    12b4:	93 ff       	sbrs	r25, 3
    12b6:	0b c0       	rjmp	.+22     	; 0x12ce <_ZN8Internal13DCF77_Encoder14advance_secondEv+0x30>
    12b8:	8b 33       	cpi	r24, 0x3B	; 59
    12ba:	49 f4       	brne	.+18     	; 0x12ce <_ZN8Internal13DCF77_Encoder14advance_secondEv+0x30>
    12bc:	25 81       	ldd	r18, Z+5	; 0x05
    12be:	21 11       	cpse	r18, r1
    12c0:	06 c0       	rjmp	.+12     	; 0x12ce <_ZN8Internal13DCF77_Encoder14advance_secondEv+0x30>
    12c2:	8c e3       	ldi	r24, 0x3C	; 60
    12c4:	86 83       	std	Z+6, r24	; 0x06
    12c6:	89 2f       	mov	r24, r25
    12c8:	87 7f       	andi	r24, 0xF7	; 247
    12ca:	87 83       	std	Z+7, r24	; 0x07
    12cc:	08 95       	ret
    12ce:	8b 53       	subi	r24, 0x3B	; 59
    12d0:	82 30       	cpi	r24, 0x02	; 2
    12d2:	18 f4       	brcc	.+6      	; 0x12da <_ZN8Internal13DCF77_Encoder14advance_secondEv+0x3c>
    12d4:	16 82       	std	Z+6, r1	; 0x06
    12d6:	cf 01       	movw	r24, r30
    12d8:	c7 cd       	rjmp	.-1138   	; 0xe68 <_ZN8Internal13DCF77_Encoder14advance_minuteEv>
    12da:	08 95       	ret

000012dc <_ZN11SerialClass5flushEv.isra.4>:
    12dc:	80 91 c0 00 	lds	r24, 0x00C0	; 0x8000c0 <__TEXT_REGION_LENGTH__+0x7e00c0>
    12e0:	86 ff       	sbrs	r24, 6
    12e2:	fc cf       	rjmp	.-8      	; 0x12dc <_ZN11SerialClass5flushEv.isra.4>
    12e4:	80 91 c0 00 	lds	r24, 0x00C0	; 0x8000c0 <__TEXT_REGION_LENGTH__+0x7e00c0>
    12e8:	80 64       	ori	r24, 0x40	; 64
    12ea:	80 93 c0 00 	sts	0x00C0, r24	; 0x8000c0 <__TEXT_REGION_LENGTH__+0x7e00c0>
    12ee:	08 95       	ret

000012f0 <_ZN11SerialClass5writeEh.isra.0>:
    12f0:	90 91 c0 00 	lds	r25, 0x00C0	; 0x8000c0 <__TEXT_REGION_LENGTH__+0x7e00c0>
    12f4:	95 ff       	sbrs	r25, 5
    12f6:	fc cf       	rjmp	.-8      	; 0x12f0 <_ZN11SerialClass5writeEh.isra.0>
    12f8:	80 93 c6 00 	sts	0x00C6, r24	; 0x8000c6 <__TEXT_REGION_LENGTH__+0x7e00c6>
    12fc:	81 e0       	ldi	r24, 0x01	; 1
    12fe:	90 e0       	ldi	r25, 0x00	; 0
    1300:	08 95       	ret

00001302 <_ZN11SerialClass7printlnEPK19__FlashStringHelper.isra.8>:
    1302:	0f 93       	push	r16
    1304:	1f 93       	push	r17
    1306:	cf 93       	push	r28
    1308:	df 93       	push	r29
    130a:	8c 01       	movw	r16, r24
    130c:	d0 e0       	ldi	r29, 0x00	; 0
    130e:	c0 e0       	ldi	r28, 0x00	; 0
    1310:	f8 01       	movw	r30, r16
    1312:	ec 0f       	add	r30, r28
    1314:	fd 1f       	adc	r31, r29
    1316:	84 91       	lpm	r24, Z
    1318:	88 23       	and	r24, r24
    131a:	19 f0       	breq	.+6      	; 0x1322 <_ZN11SerialClass7printlnEPK19__FlashStringHelper.isra.8+0x20>
    131c:	e9 df       	rcall	.-46     	; 0x12f0 <_ZN11SerialClass5writeEh.isra.0>
    131e:	21 96       	adiw	r28, 0x01	; 1
    1320:	f7 cf       	rjmp	.-18     	; 0x1310 <_ZN11SerialClass7printlnEPK19__FlashStringHelper.isra.8+0xe>
    1322:	8d e0       	ldi	r24, 0x0D	; 13
    1324:	e5 df       	rcall	.-54     	; 0x12f0 <_ZN11SerialClass5writeEh.isra.0>
    1326:	8a e0       	ldi	r24, 0x0A	; 10
    1328:	e3 df       	rcall	.-58     	; 0x12f0 <_ZN11SerialClass5writeEh.isra.0>
    132a:	ce 01       	movw	r24, r28
    132c:	02 96       	adiw	r24, 0x02	; 2
    132e:	df 91       	pop	r29
    1330:	cf 91       	pop	r28
    1332:	1f 91       	pop	r17
    1334:	0f 91       	pop	r16
    1336:	08 95       	ret

00001338 <_ZN7Modules22updateConnectionStatusEv>:
    1338:	bf 92       	push	r11
    133a:	cf 92       	push	r12
    133c:	df 92       	push	r13
    133e:	ef 92       	push	r14
    1340:	ff 92       	push	r15
    1342:	0f 93       	push	r16
    1344:	1f 93       	push	r17
    1346:	cf 93       	push	r28
    1348:	df 93       	push	r29
    134a:	80 ef       	ldi	r24, 0xF0	; 240
    134c:	e8 2e       	mov	r14, r24
    134e:	82 e0       	ldi	r24, 0x02	; 2
    1350:	f8 2e       	mov	r15, r24
    1352:	10 e0       	ldi	r17, 0x00	; 0
    1354:	00 e0       	ldi	r16, 0x00	; 0
    1356:	cc 24       	eor	r12, r12
    1358:	c3 94       	inc	r12
    135a:	d1 2c       	mov	r13, r1
    135c:	80 91 52 03 	lds	r24, 0x0352	; 0x800352 <_ZN7ModulesL8_MODULESE>
    1360:	90 e0       	ldi	r25, 0x00	; 0
    1362:	00 2e       	mov	r0, r16
    1364:	02 c0       	rjmp	.+4      	; 0x136a <_ZN7Modules22updateConnectionStatusEv+0x32>
    1366:	95 95       	asr	r25
    1368:	87 95       	ror	r24
    136a:	0a 94       	dec	r0
    136c:	e2 f7       	brpl	.-8      	; 0x1366 <_ZN7Modules22updateConnectionStatusEv+0x2e>
    136e:	c8 2f       	mov	r28, r24
    1370:	c1 70       	andi	r28, 0x01	; 1
    1372:	d7 01       	movw	r26, r14
    1374:	ed 91       	ld	r30, X+
    1376:	fd 91       	ld	r31, X+
    1378:	7d 01       	movw	r14, r26
    137a:	09 95       	icall
    137c:	b8 2e       	mov	r11, r24
    137e:	c8 17       	cp	r28, r24
    1380:	09 f4       	brne	.+2      	; 0x1384 <_ZN7Modules22updateConnectionStatusEv+0x4c>
    1382:	37 c0       	rjmp	.+110    	; 0x13f2 <_ZN7Modules22updateConnectionStatusEv+0xba>
    1384:	c6 01       	movw	r24, r12
    1386:	00 2e       	mov	r0, r16
    1388:	01 c0       	rjmp	.+2      	; 0x138c <_ZN7Modules22updateConnectionStatusEv+0x54>
    138a:	88 0f       	add	r24, r24
    138c:	0a 94       	dec	r0
    138e:	ea f7       	brpl	.-6      	; 0x138a <_ZN7Modules22updateConnectionStatusEv+0x52>
    1390:	20 91 52 03 	lds	r18, 0x0352	; 0x800352 <_ZN7ModulesL8_MODULESE>
    1394:	bb 20       	and	r11, r11
    1396:	69 f0       	breq	.+26     	; 0x13b2 <_ZN7Modules22updateConnectionStatusEv+0x7a>
    1398:	82 2b       	or	r24, r18
    139a:	80 93 52 03 	sts	0x0352, r24	; 0x800352 <_ZN7ModulesL8_MODULESE>
    139e:	cf ef       	ldi	r28, 0xFF	; 255
    13a0:	d2 e0       	ldi	r29, 0x02	; 2
    13a2:	89 91       	ld	r24, Y+
    13a4:	88 23       	and	r24, r24
    13a6:	41 f0       	breq	.+16     	; 0x13b8 <_ZN7Modules22updateConnectionStatusEv+0x80>
    13a8:	a3 df       	rcall	.-186    	; 0x12f0 <_ZN11SerialClass5writeEh.isra.0>
    13aa:	fb cf       	rjmp	.-10     	; 0x13a2 <_ZN7Modules22updateConnectionStatusEv+0x6a>
    13ac:	01 e0       	ldi	r16, 0x01	; 1
    13ae:	10 e0       	ldi	r17, 0x00	; 0
    13b0:	d5 cf       	rjmp	.-86     	; 0x135c <_ZN7Modules22updateConnectionStatusEv+0x24>
    13b2:	80 95       	com	r24
    13b4:	82 23       	and	r24, r18
    13b6:	f1 cf       	rjmp	.-30     	; 0x139a <_ZN7Modules22updateConnectionStatusEv+0x62>
    13b8:	c4 ef       	ldi	r28, 0xF4	; 244
    13ba:	d2 e0       	ldi	r29, 0x02	; 2
    13bc:	01 15       	cp	r16, r1
    13be:	11 05       	cpc	r17, r1
    13c0:	11 f4       	brne	.+4      	; 0x13c6 <_ZN7Modules22updateConnectionStatusEv+0x8e>
    13c2:	cb ef       	ldi	r28, 0xFB	; 251
    13c4:	d2 e0       	ldi	r29, 0x02	; 2
    13c6:	89 91       	ld	r24, Y+
    13c8:	81 11       	cpse	r24, r1
    13ca:	09 c0       	rjmp	.+18     	; 0x13de <_ZN7Modules22updateConnectionStatusEv+0xa6>
    13cc:	c5 e0       	ldi	r28, 0x05	; 5
    13ce:	d1 e0       	ldi	r29, 0x01	; 1
    13d0:	fe 01       	movw	r30, r28
    13d2:	84 91       	lpm	r24, Z
    13d4:	21 96       	adiw	r28, 0x01	; 1
    13d6:	88 23       	and	r24, r24
    13d8:	21 f0       	breq	.+8      	; 0x13e2 <_ZN7Modules22updateConnectionStatusEv+0xaa>
    13da:	8a df       	rcall	.-236    	; 0x12f0 <_ZN11SerialClass5writeEh.isra.0>
    13dc:	f9 cf       	rjmp	.-14     	; 0x13d0 <_ZN7Modules22updateConnectionStatusEv+0x98>
    13de:	88 df       	rcall	.-240    	; 0x12f0 <_ZN11SerialClass5writeEh.isra.0>
    13e0:	f2 cf       	rjmp	.-28     	; 0x13c6 <_ZN7Modules22updateConnectionStatusEv+0x8e>
    13e2:	89 ef       	ldi	r24, 0xF9	; 249
    13e4:	90 e0       	ldi	r25, 0x00	; 0
    13e6:	b1 10       	cpse	r11, r1
    13e8:	02 c0       	rjmp	.+4      	; 0x13ee <_ZN7Modules22updateConnectionStatusEv+0xb6>
    13ea:	8e ee       	ldi	r24, 0xEE	; 238
    13ec:	90 e0       	ldi	r25, 0x00	; 0
    13ee:	89 df       	rcall	.-238    	; 0x1302 <_ZN11SerialClass7printlnEPK19__FlashStringHelper.isra.8>
    13f0:	75 df       	rcall	.-278    	; 0x12dc <_ZN11SerialClass5flushEv.isra.4>
    13f2:	01 30       	cpi	r16, 0x01	; 1
    13f4:	11 05       	cpc	r17, r1
    13f6:	d1 f6       	brne	.-76     	; 0x13ac <_ZN7Modules22updateConnectionStatusEv+0x74>
    13f8:	df 91       	pop	r29
    13fa:	cf 91       	pop	r28
    13fc:	1f 91       	pop	r17
    13fe:	0f 91       	pop	r16
    1400:	ff 90       	pop	r15
    1402:	ef 90       	pop	r14
    1404:	df 90       	pop	r13
    1406:	cf 90       	pop	r12
    1408:	bf 90       	pop	r11
    140a:	08 95       	ret

0000140c <_ZN7ModulesL15_INA219_PresentEv>:
    140c:	80 e0       	ldi	r24, 0x00	; 0
    140e:	08 95       	ret

00001410 <_ZZ5setupvENKUlPK19__FlashStringHelperE_clES1_.isra.1>:
    1410:	20 91 50 03 	lds	r18, 0x0350	; 0x800350 <timer_counter>
    1414:	30 91 51 03 	lds	r19, 0x0351	; 0x800351 <timer_counter+0x1>
    1418:	dc 01       	movw	r26, r24
    141a:	ed 91       	ld	r30, X+
    141c:	fc 91       	ld	r31, X
    141e:	31 83       	std	Z+1, r19	; 0x01
    1420:	20 83       	st	Z, r18
    1422:	08 95       	ret

00001424 <_Z13SET_LED_COLORhh>:
    1424:	9f ef       	ldi	r25, 0xFF	; 255
    1426:	96 0f       	add	r25, r22
    1428:	61 11       	cpse	r22, r1
    142a:	15 c0       	rjmp	.+42     	; 0x1456 <_Z13SET_LED_COLORhh+0x32>
    142c:	45 b1       	in	r20, 0x05	; 5
    142e:	21 e0       	ldi	r18, 0x01	; 1
    1430:	30 e0       	ldi	r19, 0x00	; 0
    1432:	08 2e       	mov	r0, r24
    1434:	01 c0       	rjmp	.+2      	; 0x1438 <_Z13SET_LED_COLORhh+0x14>
    1436:	22 0f       	add	r18, r18
    1438:	0a 94       	dec	r0
    143a:	ea f7       	brpl	.-6      	; 0x1436 <_Z13SET_LED_COLORhh+0x12>
    143c:	20 95       	com	r18
    143e:	24 23       	and	r18, r20
    1440:	25 b9       	out	0x05, r18	; 5
    1442:	82 30       	cpi	r24, 0x02	; 2
    1444:	a1 f1       	breq	.+104    	; 0x14ae <_Z13SET_LED_COLORhh+0x8a>
    1446:	83 30       	cpi	r24, 0x03	; 3
    1448:	b1 f1       	breq	.+108    	; 0x14b6 <_Z13SET_LED_COLORhh+0x92>
    144a:	9e 3f       	cpi	r25, 0xFE	; 254
    144c:	28 f1       	brcs	.+74     	; 0x1498 <_Z13SET_LED_COLORhh+0x74>
    144e:	80 91 80 00 	lds	r24, 0x0080	; 0x800080 <__TEXT_REGION_LENGTH__+0x7e0080>
    1452:	8f 77       	andi	r24, 0x7F	; 127
    1454:	24 c0       	rjmp	.+72     	; 0x149e <_Z13SET_LED_COLORhh+0x7a>
    1456:	6f 3f       	cpi	r22, 0xFF	; 255
    1458:	81 f4       	brne	.+32     	; 0x147a <_Z13SET_LED_COLORhh+0x56>
    145a:	25 b1       	in	r18, 0x05	; 5
    145c:	41 e0       	ldi	r20, 0x01	; 1
    145e:	50 e0       	ldi	r21, 0x00	; 0
    1460:	08 2e       	mov	r0, r24
    1462:	01 c0       	rjmp	.+2      	; 0x1466 <_Z13SET_LED_COLORhh+0x42>
    1464:	44 0f       	add	r20, r20
    1466:	0a 94       	dec	r0
    1468:	ea f7       	brpl	.-6      	; 0x1464 <_Z13SET_LED_COLORhh+0x40>
    146a:	24 2b       	or	r18, r20
    146c:	25 b9       	out	0x05, r18	; 5
    146e:	82 30       	cpi	r24, 0x02	; 2
    1470:	31 f0       	breq	.+12     	; 0x147e <_Z13SET_LED_COLORhh+0x5a>
    1472:	83 30       	cpi	r24, 0x03	; 3
    1474:	51 f7       	brne	.-44     	; 0x144a <_Z13SET_LED_COLORhh+0x26>
    1476:	60 e0       	ldi	r22, 0x00	; 0
    1478:	20 c0       	rjmp	.+64     	; 0x14ba <_Z13SET_LED_COLORhh+0x96>
    147a:	82 30       	cpi	r24, 0x02	; 2
    147c:	21 f7       	brne	.-56     	; 0x1446 <_Z13SET_LED_COLORhh+0x22>
    147e:	9e 3f       	cpi	r25, 0xFE	; 254
    1480:	b1 f0       	breq	.+44     	; 0x14ae <_Z13SET_LED_COLORhh+0x8a>
    1482:	80 91 80 00 	lds	r24, 0x0080	; 0x800080 <__TEXT_REGION_LENGTH__+0x7e0080>
    1486:	80 62       	ori	r24, 0x20	; 32
    1488:	80 93 80 00 	sts	0x0080, r24	; 0x800080 <__TEXT_REGION_LENGTH__+0x7e0080>
    148c:	70 e0       	ldi	r23, 0x00	; 0
    148e:	70 93 8b 00 	sts	0x008B, r23	; 0x80008b <__TEXT_REGION_LENGTH__+0x7e008b>
    1492:	60 93 8a 00 	sts	0x008A, r22	; 0x80008a <__TEXT_REGION_LENGTH__+0x7e008a>
    1496:	08 95       	ret
    1498:	80 91 80 00 	lds	r24, 0x0080	; 0x800080 <__TEXT_REGION_LENGTH__+0x7e0080>
    149c:	80 68       	ori	r24, 0x80	; 128
    149e:	80 93 80 00 	sts	0x0080, r24	; 0x800080 <__TEXT_REGION_LENGTH__+0x7e0080>
    14a2:	70 e0       	ldi	r23, 0x00	; 0
    14a4:	70 93 89 00 	sts	0x0089, r23	; 0x800089 <__TEXT_REGION_LENGTH__+0x7e0089>
    14a8:	60 93 88 00 	sts	0x0088, r22	; 0x800088 <__TEXT_REGION_LENGTH__+0x7e0088>
    14ac:	08 95       	ret
    14ae:	80 91 80 00 	lds	r24, 0x0080	; 0x800080 <__TEXT_REGION_LENGTH__+0x7e0080>
    14b2:	8f 7d       	andi	r24, 0xDF	; 223
    14b4:	e9 cf       	rjmp	.-46     	; 0x1488 <_Z13SET_LED_COLORhh+0x64>
    14b6:	9e 3f       	cpi	r25, 0xFE	; 254
    14b8:	f0 f6       	brcc	.-68     	; 0x1476 <_Z13SET_LED_COLORhh+0x52>
    14ba:	60 93 4f 03 	sts	0x034F, r22	; 0x80034f <LED_B_REG>
    14be:	08 95       	ret

000014c0 <_Z18SET_ALL_LED_BRIGHTh>:
    14c0:	cf 93       	push	r28
    14c2:	c8 2f       	mov	r28, r24
    14c4:	68 2f       	mov	r22, r24
    14c6:	81 e0       	ldi	r24, 0x01	; 1
    14c8:	ad df       	rcall	.-166    	; 0x1424 <_Z13SET_LED_COLORhh>
    14ca:	6c 2f       	mov	r22, r28
    14cc:	82 e0       	ldi	r24, 0x02	; 2
    14ce:	aa df       	rcall	.-172    	; 0x1424 <_Z13SET_LED_COLORhh>
    14d0:	6c 2f       	mov	r22, r28
    14d2:	83 e0       	ldi	r24, 0x03	; 3
    14d4:	cf 91       	pop	r28
    14d6:	a6 cf       	rjmp	.-180    	; 0x1424 <_Z13SET_LED_COLORhh>

000014d8 <_Z4waitj>:
    14d8:	90 93 3e 03 	sts	0x033E, r25	; 0x80033e <_ZL9_ms_ticks+0x1>
    14dc:	80 93 3d 03 	sts	0x033D, r24	; 0x80033d <_ZL9_ms_ticks>
    14e0:	83 b7       	in	r24, 0x33	; 51
    14e2:	81 7f       	andi	r24, 0xF1	; 241
    14e4:	83 bf       	out	0x33, r24	; 51
    14e6:	83 b7       	in	r24, 0x33	; 51
    14e8:	81 60       	ori	r24, 0x01	; 1
    14ea:	83 bf       	out	0x33, r24	; 51
    14ec:	80 91 3d 03 	lds	r24, 0x033D	; 0x80033d <_ZL9_ms_ticks>
    14f0:	90 91 3e 03 	lds	r25, 0x033E	; 0x80033e <_ZL9_ms_ticks+0x1>
    14f4:	89 2b       	or	r24, r25
    14f6:	11 f0       	breq	.+4      	; 0x14fc <_Z4waitj+0x24>
    14f8:	88 95       	sleep
    14fa:	f8 cf       	rjmp	.-16     	; 0x14ec <_Z4waitj+0x14>
    14fc:	83 b7       	in	r24, 0x33	; 51
    14fe:	8e 7f       	andi	r24, 0xFE	; 254
    1500:	83 bf       	out	0x33, r24	; 51
    1502:	08 95       	ret

00001504 <_ZN7Display11CrossfadingL11_stepPeriodEv>:
    1504:	80 91 a4 04 	lds	r24, 0x04A4	; 0x8004a4 <MODE>
    1508:	81 fd       	sbrc	r24, 1
    150a:	04 c0       	rjmp	.+8      	; 0x1514 <_ZN7Display11CrossfadingL11_stepPeriodEv+0x10>
    150c:	80 91 a4 04 	lds	r24, 0x04A4	; 0x8004a4 <MODE>
    1510:	83 ff       	sbrs	r24, 3
    1512:	06 c0       	rjmp	.+12     	; 0x1520 <_ZN7Display11CrossfadingL11_stepPeriodEv+0x1c>
    1514:	80 91 a4 04 	lds	r24, 0x04A4	; 0x8004a4 <MODE>
    1518:	84 fd       	sbrc	r24, 4
    151a:	02 c0       	rjmp	.+4      	; 0x1520 <_ZN7Display11CrossfadingL11_stepPeriodEv+0x1c>
    151c:	84 e1       	ldi	r24, 0x14	; 20
    151e:	08 95       	ret
    1520:	80 ef       	ldi	r24, 0xF0	; 240
    1522:	08 95       	ret

00001524 <_ZN7Display11Crossfading12transitionToEPKh.constprop.91>:
    1524:	cf 93       	push	r28
    1526:	df 93       	push	r29
    1528:	cf b7       	in	r28, 0x3f	; 63
    152a:	f8 94       	cli
    152c:	e0 ea       	ldi	r30, 0xA0	; 160
    152e:	f4 e0       	ldi	r31, 0x04	; 4
    1530:	26 ea       	ldi	r18, 0xA6	; 166
    1532:	34 e0       	ldi	r19, 0x04	; 4
    1534:	61 e0       	ldi	r22, 0x01	; 1
    1536:	70 e0       	ldi	r23, 0x00	; 0
    1538:	d1 91       	ld	r29, Z+
    153a:	d9 01       	movw	r26, r18
    153c:	90 e0       	ldi	r25, 0x00	; 0
    153e:	80 e0       	ldi	r24, 0x00	; 0
    1540:	ab 01       	movw	r20, r22
    1542:	08 2e       	mov	r0, r24
    1544:	01 c0       	rjmp	.+2      	; 0x1548 <_ZN7Display11Crossfading12transitionToEPKh.constprop.91+0x24>
    1546:	44 0f       	add	r20, r20
    1548:	0a 94       	dec	r0
    154a:	ea f7       	brpl	.-6      	; 0x1546 <_ZN7Display11Crossfading12transitionToEPKh.constprop.91+0x22>
    154c:	4d 23       	and	r20, r29
    154e:	09 f0       	breq	.+2      	; 0x1552 <_ZN7Display11Crossfading12transitionToEPKh.constprop.91+0x2e>
    1550:	40 e1       	ldi	r20, 0x10	; 16
    1552:	4d 93       	st	X+, r20
    1554:	01 96       	adiw	r24, 0x01	; 1
    1556:	88 30       	cpi	r24, 0x08	; 8
    1558:	91 05       	cpc	r25, r1
    155a:	91 f7       	brne	.-28     	; 0x1540 <_ZN7Display11Crossfading12transitionToEPKh.constprop.91+0x1c>
    155c:	28 5f       	subi	r18, 0xF8	; 248
    155e:	3f 4f       	sbci	r19, 0xFF	; 255
    1560:	84 e0       	ldi	r24, 0x04	; 4
    1562:	e4 3a       	cpi	r30, 0xA4	; 164
    1564:	f8 07       	cpc	r31, r24
    1566:	41 f7       	brne	.-48     	; 0x1538 <_ZN7Display11Crossfading12transitionToEPKh.constprop.91+0x14>
    1568:	cd df       	rcall	.-102    	; 0x1504 <_ZN7Display11CrossfadingL11_stepPeriodEv>
    156a:	80 93 e4 02 	sts	0x02E4, r24	; 0x8002e4 <_ZN7Display11CrossfadingL17crsf_step_counterE>
    156e:	81 e0       	ldi	r24, 0x01	; 1
    1570:	80 93 a5 04 	sts	0x04A5, r24	; 0x8004a5 <_ZN7Display11CrossfadingL12_crsf_activeE>
    1574:	80 91 a4 04 	lds	r24, 0x04A4	; 0x8004a4 <MODE>
    1578:	84 60       	ori	r24, 0x04	; 4
    157a:	80 93 a4 04 	sts	0x04A4, r24	; 0x8004a4 <MODE>
    157e:	cf bf       	out	0x3f, r28	; 63
    1580:	df 91       	pop	r29
    1582:	cf 91       	pop	r28
    1584:	08 95       	ret

00001586 <_ZN5Views8showViewEa.part.5>:
    1586:	cf 93       	push	r28
    1588:	c8 2f       	mov	r28, r24
    158a:	e8 2f       	mov	r30, r24
    158c:	ee 0f       	add	r30, r30
    158e:	ff 0b       	sbc	r31, r31
    1590:	e5 58       	subi	r30, 0x85	; 133
    1592:	ff 4f       	sbci	r31, 0xFF	; 255
    1594:	85 91       	lpm	r24, Z+
    1596:	94 91       	lpm	r25, Z
    1598:	fc 01       	movw	r30, r24
    159a:	09 95       	icall
    159c:	c0 93 09 01 	sts	0x0109, r28	; 0x800109 <_ZN5ViewsL16_last_view_indexE>
    15a0:	81 e0       	ldi	r24, 0x01	; 1
    15a2:	80 93 45 03 	sts	0x0345, r24	; 0x800345 <_ZN5ViewsL18_is_any_view_shownE>
    15a6:	10 92 3f 03 	sts	0x033F, r1	; 0x80033f <_ZN5ViewsL18_view_iter_counterE>
    15aa:	cf 91       	pop	r28
    15ac:	08 95       	ret

000015ae <_ZN7Display23displayTimeFromCountersEhh>:
    15ae:	1f 93       	push	r17
    15b0:	cf 93       	push	r28
    15b2:	df 93       	push	r29
    15b4:	58 2f       	mov	r21, r24
    15b6:	36 2f       	mov	r19, r22
    15b8:	80 91 a4 04 	lds	r24, 0x04A4	; 0x8004a4 <MODE>
    15bc:	83 fd       	sbrc	r24, 3
    15be:	44 c0       	rjmp	.+136    	; 0x1648 <_ZN7Display23displayTimeFromCountersEhh+0x9a>
    15c0:	80 91 51 01 	lds	r24, 0x0151	; 0x800151 <_ZN6ConfigL7entriesE+0x41>
    15c4:	82 30       	cpi	r24, 0x02	; 2
    15c6:	41 f4       	brne	.+16     	; 0x15d8 <_ZN7Display23displayTimeFromCountersEhh+0x2a>
    15c8:	86 2f       	mov	r24, r22
    15ca:	6c e0       	ldi	r22, 0x0C	; 12
    15cc:	0e 94 c8 27 	call	0x4f90	; 0x4f90 <__udivmodqi4>
    15d0:	39 2f       	mov	r19, r25
    15d2:	91 11       	cpse	r25, r1
    15d4:	01 c0       	rjmp	.+2      	; 0x15d8 <_ZN7Display23displayTimeFromCountersEhh+0x2a>
    15d6:	3c e0       	ldi	r19, 0x0C	; 12
    15d8:	d0 91 5e 01 	lds	r29, 0x015E	; 0x80015e <_ZN6ConfigL7entriesE+0x4e>
    15dc:	a0 ea       	ldi	r26, 0xA0	; 160
    15de:	b4 e0       	ldi	r27, 0x04	; 4
    15e0:	40 e0       	ldi	r20, 0x00	; 0
    15e2:	20 e0       	ldi	r18, 0x00	; 0
    15e4:	ca e0       	ldi	r28, 0x0A	; 10
    15e6:	8e ef       	ldi	r24, 0xFE	; 254
    15e8:	82 0f       	add	r24, r18
    15ea:	82 30       	cpi	r24, 0x02	; 2
    15ec:	40 f0       	brcs	.+16     	; 0x15fe <_ZN7Display23displayTimeFromCountersEhh+0x50>
    15ee:	83 2f       	mov	r24, r19
    15f0:	22 23       	and	r18, r18
    15f2:	41 f0       	breq	.+16     	; 0x1604 <_ZN7Display23displayTimeFromCountersEhh+0x56>
    15f4:	6c 2f       	mov	r22, r28
    15f6:	0e 94 c8 27 	call	0x4f90	; 0x4f90 <__udivmodqi4>
    15fa:	89 2f       	mov	r24, r25
    15fc:	06 c0       	rjmp	.+12     	; 0x160a <_ZN7Display23displayTimeFromCountersEhh+0x5c>
    15fe:	85 2f       	mov	r24, r21
    1600:	22 30       	cpi	r18, 0x02	; 2
    1602:	c1 f7       	brne	.-16     	; 0x15f4 <_ZN7Display23displayTimeFromCountersEhh+0x46>
    1604:	6c 2f       	mov	r22, r28
    1606:	0e 94 c8 27 	call	0x4f90	; 0x4f90 <__udivmodqi4>
    160a:	e8 2f       	mov	r30, r24
    160c:	f0 e0       	ldi	r31, 0x00	; 0
    160e:	e1 58       	subi	r30, 0x81	; 129
    1610:	ff 4f       	sbci	r31, 0xFF	; 255
    1612:	14 91       	lpm	r17, Z
    1614:	9d 91       	ld	r25, X+
    1616:	19 17       	cp	r17, r25
    1618:	71 f0       	breq	.+28     	; 0x1636 <_ZN7Display23displayTimeFromCountersEhh+0x88>
    161a:	bd 01       	movw	r22, r26
    161c:	61 50       	subi	r22, 0x01	; 1
    161e:	71 09       	sbc	r23, r1
    1620:	fb 01       	movw	r30, r22
    1622:	10 83       	st	Z, r17
    1624:	21 11       	cpse	r18, r1
    1626:	06 c0       	rjmp	.+12     	; 0x1634 <_ZN7Display23displayTimeFromCountersEhh+0x86>
    1628:	81 11       	cpse	r24, r1
    162a:	04 c0       	rjmp	.+8      	; 0x1634 <_ZN7Display23displayTimeFromCountersEhh+0x86>
    162c:	d1 11       	cpse	r29, r1
    162e:	02 c0       	rjmp	.+4      	; 0x1634 <_ZN7Display23displayTimeFromCountersEhh+0x86>
    1630:	10 92 a0 04 	sts	0x04A0, r1	; 0x8004a0 <_ZN7Display6DIGITSE>
    1634:	41 e0       	ldi	r20, 0x01	; 1
    1636:	2f 5f       	subi	r18, 0xFF	; 255
    1638:	24 30       	cpi	r18, 0x04	; 4
    163a:	a9 f6       	brne	.-86     	; 0x15e6 <_ZN7Display23displayTimeFromCountersEhh+0x38>
    163c:	44 23       	and	r20, r20
    163e:	21 f0       	breq	.+8      	; 0x1648 <_ZN7Display23displayTimeFromCountersEhh+0x9a>
    1640:	df 91       	pop	r29
    1642:	cf 91       	pop	r28
    1644:	1f 91       	pop	r17
    1646:	6e cf       	rjmp	.-292    	; 0x1524 <_ZN7Display11Crossfading12transitionToEPKh.constprop.91>
    1648:	df 91       	pop	r29
    164a:	cf 91       	pop	r28
    164c:	1f 91       	pop	r17
    164e:	08 95       	ret

00001650 <_ZN5Views9hideViewsEv>:
    1650:	10 92 45 03 	sts	0x0345, r1	; 0x800345 <_ZN5ViewsL18_is_any_view_shownE>
    1654:	10 92 3f 03 	sts	0x033F, r1	; 0x80033f <_ZN5ViewsL18_view_iter_counterE>
    1658:	60 91 4c 03 	lds	r22, 0x034C	; 0x80034c <t_counter_hours>
    165c:	80 91 4d 03 	lds	r24, 0x034D	; 0x80034d <t_counter_minutes>
    1660:	a6 cf       	rjmp	.-180    	; 0x15ae <_ZN7Display23displayTimeFromCountersEhh>

00001662 <_ZN7Display19setSymbolOnNumitronEhh>:
    1662:	6e 30       	cpi	r22, 0x0E	; 14
    1664:	60 f4       	brcc	.+24     	; 0x167e <_ZN7Display19setSymbolOnNumitronEhh+0x1c>
    1666:	e6 2f       	mov	r30, r22
    1668:	f0 e0       	ldi	r31, 0x00	; 0
    166a:	e1 58       	subi	r30, 0x81	; 129
    166c:	ff 4f       	sbci	r31, 0xFF	; 255
    166e:	e4 91       	lpm	r30, Z
    1670:	84 30       	cpi	r24, 0x04	; 4
    1672:	29 f0       	breq	.+10     	; 0x167e <_ZN7Display19setSymbolOnNumitronEhh+0x1c>
    1674:	a8 2f       	mov	r26, r24
    1676:	b0 e0       	ldi	r27, 0x00	; 0
    1678:	a0 56       	subi	r26, 0x60	; 96
    167a:	bb 4f       	sbci	r27, 0xFB	; 251
    167c:	ec 93       	st	X, r30
    167e:	08 95       	ret

00001680 <_ZL11displayPageh>:
    1680:	ff 92       	push	r15
    1682:	0f 93       	push	r16
    1684:	1f 93       	push	r17
    1686:	cf 93       	push	r28
    1688:	df 93       	push	r29
    168a:	d8 2f       	mov	r29, r24
    168c:	dd 0f       	add	r29, r29
    168e:	dd 0f       	add	r29, r29
    1690:	00 ea       	ldi	r16, 0xA0	; 160
    1692:	14 e0       	ldi	r17, 0x04	; 4
    1694:	c0 e0       	ldi	r28, 0x00	; 0
    1696:	8d e0       	ldi	r24, 0x0D	; 13
    1698:	f8 2e       	mov	r15, r24
    169a:	ad 2f       	mov	r26, r29
    169c:	ac 0f       	add	r26, r28
    169e:	fa 9e       	mul	r15, r26
    16a0:	d0 01       	movw	r26, r0
    16a2:	11 24       	eor	r1, r1
    16a4:	a0 5f       	subi	r26, 0xF0	; 240
    16a6:	be 4f       	sbci	r27, 0xFE	; 254
    16a8:	13 96       	adiw	r26, 0x03	; 3
    16aa:	ed 91       	ld	r30, X+
    16ac:	fc 91       	ld	r31, X
    16ae:	14 97       	sbiw	r26, 0x04	; 4
    16b0:	6c 91       	ld	r22, X
    16b2:	30 97       	sbiw	r30, 0x00	; 0
    16b4:	19 f0       	breq	.+6      	; 0x16bc <_ZL11displayPageh+0x3c>
    16b6:	e6 0f       	add	r30, r22
    16b8:	f1 1d       	adc	r31, r1
    16ba:	64 91       	lpm	r22, Z
    16bc:	8c 2f       	mov	r24, r28
    16be:	d1 df       	rcall	.-94     	; 0x1662 <_ZN7Display19setSymbolOnNumitronEhh>
    16c0:	80 91 46 03 	lds	r24, 0x0346	; 0x800346 <_ZL14selected_digit>
    16c4:	8c 13       	cpse	r24, r28
    16c6:	08 c0       	rjmp	.+16     	; 0x16d8 <_ZL11displayPageh+0x58>
    16c8:	80 91 a4 04 	lds	r24, 0x04A4	; 0x8004a4 <MODE>
    16cc:	81 ff       	sbrs	r24, 1
    16ce:	04 c0       	rjmp	.+8      	; 0x16d8 <_ZL11displayPageh+0x58>
    16d0:	f8 01       	movw	r30, r16
    16d2:	80 81       	ld	r24, Z
    16d4:	80 68       	ori	r24, 0x80	; 128
    16d6:	80 83       	st	Z, r24
    16d8:	cf 5f       	subi	r28, 0xFF	; 255
    16da:	0f 5f       	subi	r16, 0xFF	; 255
    16dc:	1f 4f       	sbci	r17, 0xFF	; 255
    16de:	c4 30       	cpi	r28, 0x04	; 4
    16e0:	e1 f6       	brne	.-72     	; 0x169a <_ZL11displayPageh+0x1a>
    16e2:	df 91       	pop	r29
    16e4:	cf 91       	pop	r28
    16e6:	1f 91       	pop	r17
    16e8:	0f 91       	pop	r16
    16ea:	ff 90       	pop	r15
    16ec:	1b cf       	rjmp	.-458    	; 0x1524 <_ZN7Display11Crossfading12transitionToEPKh.constprop.91>

000016ee <_ZN7Display13setBrightnessEhh>:
    16ee:	81 3b       	cpi	r24, 0xB1	; 177
    16f0:	08 f0       	brcs	.+2      	; 0x16f4 <_ZN7Display13setBrightnessEhh+0x6>
    16f2:	80 eb       	ldi	r24, 0xB0	; 176
    16f4:	90 91 07 01 	lds	r25, 0x0107	; 0x800107 <_ZN7Display18_target_brightnessE>
    16f8:	98 17       	cp	r25, r24
    16fa:	91 f0       	breq	.+36     	; 0x1720 <_ZN7Display13setBrightnessEhh+0x32>
    16fc:	90 91 07 01 	lds	r25, 0x0107	; 0x800107 <_ZN7Display18_target_brightnessE>
    1700:	89 17       	cp	r24, r25
    1702:	60 f0       	brcs	.+24     	; 0x171c <_ZN7Display13setBrightnessEhh+0x2e>
    1704:	90 91 07 01 	lds	r25, 0x0107	; 0x800107 <_ZN7Display18_target_brightnessE>
    1708:	98 17       	cp	r25, r24
    170a:	50 f4       	brcc	.+20     	; 0x1720 <_ZN7Display13setBrightnessEhh+0x32>
    170c:	90 91 07 01 	lds	r25, 0x0107	; 0x800107 <_ZN7Display18_target_brightnessE>
    1710:	48 2f       	mov	r20, r24
    1712:	49 1b       	sub	r20, r25
    1714:	55 0b       	sbc	r21, r21
    1716:	64 17       	cp	r22, r20
    1718:	15 06       	cpc	r1, r21
    171a:	14 f4       	brge	.+4      	; 0x1720 <_ZN7Display13setBrightnessEhh+0x32>
    171c:	80 93 07 01 	sts	0x0107, r24	; 0x800107 <_ZN7Display18_target_brightnessE>
    1720:	08 95       	ret

00001722 <_ZN7Display19incrementBrightnessEa>:
    1722:	20 91 07 01 	lds	r18, 0x0107	; 0x800107 <_ZN7Display18_target_brightnessE>
    1726:	48 2f       	mov	r20, r24
    1728:	08 2e       	mov	r0, r24
    172a:	00 0c       	add	r0, r0
    172c:	55 0b       	sbc	r21, r21
    172e:	24 0f       	add	r18, r20
    1730:	35 2f       	mov	r19, r21
    1732:	31 1d       	adc	r19, r1
    1734:	22 31       	cpi	r18, 0x12	; 18
    1736:	31 05       	cpc	r19, r1
    1738:	44 f0       	brlt	.+16     	; 0x174a <_ZN7Display19incrementBrightnessEa+0x28>
    173a:	20 91 07 01 	lds	r18, 0x0107	; 0x800107 <_ZN7Display18_target_brightnessE>
    173e:	24 0f       	add	r18, r20
    1740:	35 2f       	mov	r19, r21
    1742:	31 1d       	adc	r19, r1
    1744:	20 3b       	cpi	r18, 0xB0	; 176
    1746:	31 05       	cpc	r19, r1
    1748:	94 f4       	brge	.+36     	; 0x176e <_ZN7Display19incrementBrightnessEa+0x4c>
    174a:	20 91 07 01 	lds	r18, 0x0107	; 0x800107 <_ZN7Display18_target_brightnessE>
    174e:	24 0f       	add	r18, r20
    1750:	35 2f       	mov	r19, r21
    1752:	31 1d       	adc	r19, r1
    1754:	22 31       	cpi	r18, 0x12	; 18
    1756:	31 05       	cpc	r19, r1
    1758:	64 f0       	brlt	.+24     	; 0x1772 <_ZN7Display19incrementBrightnessEa+0x50>
    175a:	90 91 07 01 	lds	r25, 0x0107	; 0x800107 <_ZN7Display18_target_brightnessE>
    175e:	89 0f       	add	r24, r25
    1760:	60 e0       	ldi	r22, 0x00	; 0
    1762:	c5 df       	rcall	.-118    	; 0x16ee <_ZN7Display13setBrightnessEhh>
    1764:	80 91 07 01 	lds	r24, 0x0107	; 0x800107 <_ZN7Display18_target_brightnessE>
    1768:	80 93 08 01 	sts	0x0108, r24	; 0x800108 <_ZN7Display21configured_brightnessE>
    176c:	08 95       	ret
    176e:	80 eb       	ldi	r24, 0xB0	; 176
    1770:	f7 cf       	rjmp	.-18     	; 0x1760 <_ZN7Display19incrementBrightnessEa+0x3e>
    1772:	81 e1       	ldi	r24, 0x11	; 17
    1774:	f5 cf       	rjmp	.-22     	; 0x1760 <_ZN7Display19incrementBrightnessEa+0x3e>

00001776 <_Z16pushToOutputRegsv>:
    1776:	5f 98       	cbi	0x0b, 7	; 11
    1778:	00 00       	nop
    177a:	00 00       	nop
    177c:	5f 9a       	sbi	0x0b, 7	; 11
    177e:	08 95       	ret

00001780 <_ZN6Config22setLoadCallbackForPageEhPFvhhE>:
    1780:	88 0f       	add	r24, r24
    1782:	88 0f       	add	r24, r24
    1784:	9d e0       	ldi	r25, 0x0D	; 13
    1786:	98 9f       	mul	r25, r24
    1788:	f0 01       	movw	r30, r0
    178a:	11 24       	eor	r1, r1
    178c:	e0 5f       	subi	r30, 0xF0	; 240
    178e:	fe 4f       	sbci	r31, 0xFE	; 254
    1790:	74 87       	std	Z+12, r23	; 0x0c
    1792:	63 87       	std	Z+11, r22	; 0x0b
    1794:	e1 e0       	ldi	r30, 0x01	; 1
    1796:	e8 0f       	add	r30, r24
    1798:	9e 9f       	mul	r25, r30
    179a:	f0 01       	movw	r30, r0
    179c:	11 24       	eor	r1, r1
    179e:	e0 5f       	subi	r30, 0xF0	; 240
    17a0:	fe 4f       	sbci	r31, 0xFE	; 254
    17a2:	74 87       	std	Z+12, r23	; 0x0c
    17a4:	63 87       	std	Z+11, r22	; 0x0b
    17a6:	e2 e0       	ldi	r30, 0x02	; 2
    17a8:	e8 0f       	add	r30, r24
    17aa:	9e 9f       	mul	r25, r30
    17ac:	f0 01       	movw	r30, r0
    17ae:	11 24       	eor	r1, r1
    17b0:	e0 5f       	subi	r30, 0xF0	; 240
    17b2:	fe 4f       	sbci	r31, 0xFE	; 254
    17b4:	74 87       	std	Z+12, r23	; 0x0c
    17b6:	63 87       	std	Z+11, r22	; 0x0b
    17b8:	8d 5f       	subi	r24, 0xFD	; 253
    17ba:	98 9f       	mul	r25, r24
    17bc:	f0 01       	movw	r30, r0
    17be:	11 24       	eor	r1, r1
    17c0:	e0 5f       	subi	r30, 0xF0	; 240
    17c2:	fe 4f       	sbci	r31, 0xFE	; 254
    17c4:	74 87       	std	Z+12, r23	; 0x0c
    17c6:	63 87       	std	Z+11, r22	; 0x0b
    17c8:	08 95       	ret

000017ca <_ZN6Config22setSaveCallbackForPageEhPFvhhE>:
    17ca:	88 0f       	add	r24, r24
    17cc:	88 0f       	add	r24, r24
    17ce:	9d e0       	ldi	r25, 0x0D	; 13
    17d0:	98 9f       	mul	r25, r24
    17d2:	f0 01       	movw	r30, r0
    17d4:	11 24       	eor	r1, r1
    17d6:	e0 5f       	subi	r30, 0xF0	; 240
    17d8:	fe 4f       	sbci	r31, 0xFE	; 254
    17da:	72 87       	std	Z+10, r23	; 0x0a
    17dc:	61 87       	std	Z+9, r22	; 0x09
    17de:	e1 e0       	ldi	r30, 0x01	; 1
    17e0:	e8 0f       	add	r30, r24
    17e2:	9e 9f       	mul	r25, r30
    17e4:	f0 01       	movw	r30, r0
    17e6:	11 24       	eor	r1, r1
    17e8:	e0 5f       	subi	r30, 0xF0	; 240
    17ea:	fe 4f       	sbci	r31, 0xFE	; 254
    17ec:	72 87       	std	Z+10, r23	; 0x0a
    17ee:	61 87       	std	Z+9, r22	; 0x09
    17f0:	e2 e0       	ldi	r30, 0x02	; 2
    17f2:	e8 0f       	add	r30, r24
    17f4:	9e 9f       	mul	r25, r30
    17f6:	f0 01       	movw	r30, r0
    17f8:	11 24       	eor	r1, r1
    17fa:	e0 5f       	subi	r30, 0xF0	; 240
    17fc:	fe 4f       	sbci	r31, 0xFE	; 254
    17fe:	72 87       	std	Z+10, r23	; 0x0a
    1800:	61 87       	std	Z+9, r22	; 0x09
    1802:	8d 5f       	subi	r24, 0xFD	; 253
    1804:	98 9f       	mul	r25, r24
    1806:	f0 01       	movw	r30, r0
    1808:	11 24       	eor	r1, r1
    180a:	e0 5f       	subi	r30, 0xF0	; 240
    180c:	fe 4f       	sbci	r31, 0xFE	; 254
    180e:	72 87       	std	Z+10, r23	; 0x0a
    1810:	61 87       	std	Z+9, r22	; 0x09
    1812:	08 95       	ret

00001814 <_ZN6Config3setENS_2IDEh>:
    1814:	9d e0       	ldi	r25, 0x0D	; 13
    1816:	89 9f       	mul	r24, r25
    1818:	f0 01       	movw	r30, r0
    181a:	11 24       	eor	r1, r1
    181c:	e0 5f       	subi	r30, 0xF0	; 240
    181e:	fe 4f       	sbci	r31, 0xFE	; 254
    1820:	91 81       	ldd	r25, Z+1	; 0x01
    1822:	69 17       	cp	r22, r25
    1824:	98 f0       	brcs	.+38     	; 0x184c <_ZN6Config3setENS_2IDEh+0x38>
    1826:	92 81       	ldd	r25, Z+2	; 0x02
    1828:	96 17       	cp	r25, r22
    182a:	80 f0       	brcs	.+32     	; 0x184c <_ZN6Config3setENS_2IDEh+0x38>
    182c:	90 81       	ld	r25, Z
    182e:	69 17       	cp	r22, r25
    1830:	69 f0       	breq	.+26     	; 0x184c <_ZN6Config3setENS_2IDEh+0x38>
    1832:	60 83       	st	Z, r22
    1834:	07 80       	ldd	r0, Z+7	; 0x07
    1836:	f0 85       	ldd	r31, Z+8	; 0x08
    1838:	e0 2d       	mov	r30, r0
    183a:	30 97       	sbiw	r30, 0x00	; 0
    183c:	29 f0       	breq	.+10     	; 0x1848 <_ZN6Config3setENS_2IDEh+0x34>
    183e:	68 2f       	mov	r22, r24
    1840:	63 70       	andi	r22, 0x03	; 3
    1842:	86 95       	lsr	r24
    1844:	86 95       	lsr	r24
    1846:	09 95       	icall
    1848:	81 e0       	ldi	r24, 0x01	; 1
    184a:	08 95       	ret
    184c:	80 e0       	ldi	r24, 0x00	; 0
    184e:	08 95       	ret

00001850 <_ZN6TimersL15_onTimerHourSetEhh>:
    1850:	90 91 48 02 	lds	r25, 0x0248	; 0x800248 <_ZN6ConfigL7entriesE+0x138>
    1854:	80 91 55 02 	lds	r24, 0x0255	; 0x800255 <_ZN6ConfigL7entriesE+0x145>
    1858:	2a e0       	ldi	r18, 0x0A	; 10
    185a:	92 9f       	mul	r25, r18
    185c:	80 0d       	add	r24, r0
    185e:	11 24       	eor	r1, r1
    1860:	88 31       	cpi	r24, 0x18	; 24
    1862:	40 f0       	brcs	.+16     	; 0x1874 <_ZN6TimersL15_onTimerHourSetEhh+0x24>
    1864:	61 11       	cpse	r22, r1
    1866:	03 c0       	rjmp	.+6      	; 0x186e <_ZN6TimersL15_onTimerHourSetEhh+0x1e>
    1868:	63 e0       	ldi	r22, 0x03	; 3
    186a:	89 e1       	ldi	r24, 0x19	; 25
    186c:	d3 cf       	rjmp	.-90     	; 0x1814 <_ZN6Config3setENS_2IDEh>
    186e:	61 e0       	ldi	r22, 0x01	; 1
    1870:	88 e1       	ldi	r24, 0x18	; 24
    1872:	fc cf       	rjmp	.-8      	; 0x186c <_ZN6TimersL15_onTimerHourSetEhh+0x1c>
    1874:	08 95       	ret

00001876 <_ZN6TimersL14_loadTimerToUIEh>:
    1876:	1f 93       	push	r17
    1878:	cf 93       	push	r28
    187a:	df 93       	push	r29
    187c:	c8 2f       	mov	r28, r24
    187e:	ee e0       	ldi	r30, 0x0E	; 14
    1880:	e8 0f       	add	r30, r24
    1882:	ee 0f       	add	r30, r30
    1884:	9d e0       	ldi	r25, 0x0D	; 13
    1886:	9e 9f       	mul	r25, r30
    1888:	d0 01       	movw	r26, r0
    188a:	11 24       	eor	r1, r1
    188c:	a0 5f       	subi	r26, 0xF0	; 240
    188e:	be 4f       	sbci	r27, 0xFE	; 254
    1890:	8c 91       	ld	r24, X
    1892:	ef 5f       	subi	r30, 0xFF	; 255
    1894:	9e 9f       	mul	r25, r30
    1896:	f0 01       	movw	r30, r0
    1898:	11 24       	eor	r1, r1
    189a:	e0 5f       	subi	r30, 0xF0	; 240
    189c:	fe 4f       	sbci	r31, 0xFE	; 254
    189e:	d0 81       	ld	r29, Z
    18a0:	6a e0       	ldi	r22, 0x0A	; 10
    18a2:	0e 94 c8 27 	call	0x4f90	; 0x4f90 <__udivmodqi4>
    18a6:	19 2f       	mov	r17, r25
    18a8:	68 2f       	mov	r22, r24
    18aa:	88 e1       	ldi	r24, 0x18	; 24
    18ac:	b3 df       	rcall	.-154    	; 0x1814 <_ZN6Config3setENS_2IDEh>
    18ae:	61 2f       	mov	r22, r17
    18b0:	89 e1       	ldi	r24, 0x19	; 25
    18b2:	b0 df       	rcall	.-160    	; 0x1814 <_ZN6Config3setENS_2IDEh>
    18b4:	6d 2f       	mov	r22, r29
    18b6:	8a e1       	ldi	r24, 0x1A	; 26
    18b8:	ad df       	rcall	.-166    	; 0x1814 <_ZN6Config3setENS_2IDEh>
    18ba:	6c 2f       	mov	r22, r28
    18bc:	8b e1       	ldi	r24, 0x1B	; 27
    18be:	df 91       	pop	r29
    18c0:	cf 91       	pop	r28
    18c2:	1f 91       	pop	r17
    18c4:	a7 cf       	rjmp	.-178    	; 0x1814 <_ZN6Config3setENS_2IDEh>

000018c6 <_ZN6TimersL16_timerPageLoadFnEhh>:
    18c6:	61 11       	cpse	r22, r1
    18c8:	03 c0       	rjmp	.+6      	; 0x18d0 <_ZN6TimersL16_timerPageLoadFnEhh+0xa>
    18ca:	80 91 74 03 	lds	r24, 0x0374	; 0x800374 <_ZN6TimersL15_ui_timer_indexE>
    18ce:	d3 cf       	rjmp	.-90     	; 0x1876 <_ZN6TimersL14_loadTimerToUIEh>
    18d0:	08 95       	ret

000018d2 <_Z21onRightButtonReleasedv>:
    18d2:	80 91 a4 04 	lds	r24, 0x04A4	; 0x8004a4 <MODE>
    18d6:	81 ff       	sbrs	r24, 1
    18d8:	18 c0       	rjmp	.+48     	; 0x190a <_Z21onRightButtonReleasedv+0x38>
    18da:	80 91 4b 03 	lds	r24, 0x034B	; 0x80034b <_ZL14cur_page_index>
    18de:	88 0f       	add	r24, r24
    18e0:	88 0f       	add	r24, r24
    18e2:	90 91 46 03 	lds	r25, 0x0346	; 0x800346 <_ZL14selected_digit>
    18e6:	89 0f       	add	r24, r25
    18e8:	9d e0       	ldi	r25, 0x0D	; 13
    18ea:	89 9f       	mul	r24, r25
    18ec:	f0 01       	movw	r30, r0
    18ee:	11 24       	eor	r1, r1
    18f0:	e0 5f       	subi	r30, 0xF0	; 240
    18f2:	fe 4f       	sbci	r31, 0xFE	; 254
    18f4:	60 81       	ld	r22, Z
    18f6:	92 81       	ldd	r25, Z+2	; 0x02
    18f8:	69 17       	cp	r22, r25
    18fa:	28 f0       	brcs	.+10     	; 0x1906 <_Z21onRightButtonReleasedv+0x34>
    18fc:	61 81       	ldd	r22, Z+1	; 0x01
    18fe:	8a df       	rcall	.-236    	; 0x1814 <_ZN6Config3setENS_2IDEh>
    1900:	80 91 4b 03 	lds	r24, 0x034B	; 0x80034b <_ZL14cur_page_index>
    1904:	bd ce       	rjmp	.-646    	; 0x1680 <_ZL11displayPageh>
    1906:	6f 5f       	subi	r22, 0xFF	; 255
    1908:	fa cf       	rjmp	.-12     	; 0x18fe <_Z21onRightButtonReleasedv+0x2c>
    190a:	80 91 44 01 	lds	r24, 0x0144	; 0x800144 <_ZN6ConfigL7entriesE+0x34>
    190e:	81 11       	cpse	r24, r1
    1910:	02 c0       	rjmp	.+4      	; 0x1916 <_Z21onRightButtonReleasedv+0x44>
    1912:	8e ef       	ldi	r24, 0xFE	; 254
    1914:	06 cf       	rjmp	.-500    	; 0x1722 <_ZN7Display19incrementBrightnessEa>
    1916:	08 95       	ret

00001918 <_Z9onTimeSethh>:
    1918:	90 91 10 01 	lds	r25, 0x0110	; 0x800110 <_ZN6ConfigL7entriesE>
    191c:	80 91 1d 01 	lds	r24, 0x011D	; 0x80011d <_ZN6ConfigL7entriesE+0xd>
    1920:	2a e0       	ldi	r18, 0x0A	; 10
    1922:	92 9f       	mul	r25, r18
    1924:	80 0d       	add	r24, r0
    1926:	11 24       	eor	r1, r1
    1928:	88 31       	cpi	r24, 0x18	; 24
    192a:	48 f0       	brcs	.+18     	; 0x193e <_Z9onTimeSethh+0x26>
    192c:	61 11       	cpse	r22, r1
    192e:	03 c0       	rjmp	.+6      	; 0x1936 <_Z9onTimeSethh+0x1e>
    1930:	63 e0       	ldi	r22, 0x03	; 3
    1932:	81 e0       	ldi	r24, 0x01	; 1
    1934:	6f cf       	rjmp	.-290    	; 0x1814 <_ZN6Config3setENS_2IDEh>
    1936:	61 30       	cpi	r22, 0x01	; 1
    1938:	11 f4       	brne	.+4      	; 0x193e <_Z9onTimeSethh+0x26>
    193a:	80 e0       	ldi	r24, 0x00	; 0
    193c:	fb cf       	rjmp	.-10     	; 0x1934 <_Z9onTimeSethh+0x1c>
    193e:	08 95       	ret

00001940 <twi_readFrom.constprop.87>:
    1940:	cf 92       	push	r12
    1942:	df 92       	push	r13
    1944:	ef 92       	push	r14
    1946:	ff 92       	push	r15
    1948:	0f 93       	push	r16
    194a:	1f 93       	push	r17
    194c:	00 e0       	ldi	r16, 0x00	; 0
    194e:	10 e0       	ldi	r17, 0x00	; 0
    1950:	98 01       	movw	r18, r16
    1952:	40 91 9b 04 	lds	r20, 0x049B	; 0x80049b <_state>
    1956:	41 11       	cpse	r20, r1
    1958:	61 c0       	rjmp	.+194    	; 0x1a1c <twi_readFrom.constprop.87+0xdc>
    195a:	22 e0       	ldi	r18, 0x02	; 2
    195c:	20 93 9b 04 	sts	0x049B, r18	; 0x80049b <_state>
    1960:	21 e0       	ldi	r18, 0x01	; 1
    1962:	20 93 9a 04 	sts	0x049A, r18	; 0x80049a <_send_stop>
    1966:	2f ef       	ldi	r18, 0xFF	; 255
    1968:	20 93 99 04 	sts	0x0499, r18	; 0x800499 <_error>
    196c:	10 92 98 04 	sts	0x0498, r1	; 0x800498 <_buf_idx>
    1970:	26 0f       	add	r18, r22
    1972:	20 93 97 04 	sts	0x0497, r18	; 0x800497 <_buf_len>
    1976:	21 ed       	ldi	r18, 0xD1	; 209
    1978:	20 93 96 04 	sts	0x0496, r18	; 0x800496 <_slarw>
    197c:	20 91 95 04 	lds	r18, 0x0495	; 0x800495 <_rep_start>
    1980:	22 23       	and	r18, r18
    1982:	09 f4       	brne	.+2      	; 0x1986 <twi_readFrom.constprop.87+0x46>
    1984:	78 c0       	rjmp	.+240    	; 0x1a76 <twi_readFrom.constprop.87+0x136>
    1986:	10 92 95 04 	sts	0x0495, r1	; 0x800495 <_rep_start>
    198a:	00 e0       	ldi	r16, 0x00	; 0
    198c:	10 e0       	ldi	r17, 0x00	; 0
    198e:	98 01       	movw	r18, r16
    1990:	40 91 96 04 	lds	r20, 0x0496	; 0x800496 <_slarw>
    1994:	40 93 bb 00 	sts	0x00BB, r20	; 0x8000bb <__TEXT_REGION_LENGTH__+0x7e00bb>
    1998:	c0 90 9c 04 	lds	r12, 0x049C	; 0x80049c <_timeout_us>
    199c:	d0 90 9d 04 	lds	r13, 0x049D	; 0x80049d <_timeout_us+0x1>
    19a0:	e0 90 9e 04 	lds	r14, 0x049E	; 0x80049e <_timeout_us+0x2>
    19a4:	f0 90 9f 04 	lds	r15, 0x049F	; 0x80049f <_timeout_us+0x3>
    19a8:	cd 28       	or	r12, r13
    19aa:	ce 28       	or	r12, r14
    19ac:	cf 28       	or	r12, r15
    19ae:	71 f0       	breq	.+28     	; 0x19cc <twi_readFrom.constprop.87+0x8c>
    19b0:	c0 90 9c 04 	lds	r12, 0x049C	; 0x80049c <_timeout_us>
    19b4:	d0 90 9d 04 	lds	r13, 0x049D	; 0x80049d <_timeout_us+0x1>
    19b8:	e0 90 9e 04 	lds	r14, 0x049E	; 0x80049e <_timeout_us+0x2>
    19bc:	f0 90 9f 04 	lds	r15, 0x049F	; 0x80049f <_timeout_us+0x3>
    19c0:	0c 15       	cp	r16, r12
    19c2:	1d 05       	cpc	r17, r13
    19c4:	2e 05       	cpc	r18, r14
    19c6:	3f 05       	cpc	r19, r15
    19c8:	08 f0       	brcs	.+2      	; 0x19cc <twi_readFrom.constprop.87+0x8c>
    19ca:	41 c0       	rjmp	.+130    	; 0x1a4e <twi_readFrom.constprop.87+0x10e>
    19cc:	45 e1       	ldi	r20, 0x15	; 21
    19ce:	4a 95       	dec	r20
    19d0:	f1 f7       	brne	.-4      	; 0x19ce <twi_readFrom.constprop.87+0x8e>
    19d2:	00 00       	nop
    19d4:	0c 5f       	subi	r16, 0xFC	; 252
    19d6:	1f 4f       	sbci	r17, 0xFF	; 255
    19d8:	2f 4f       	sbci	r18, 0xFF	; 255
    19da:	3f 4f       	sbci	r19, 0xFF	; 255
    19dc:	40 91 bc 00 	lds	r20, 0x00BC	; 0x8000bc <__TEXT_REGION_LENGTH__+0x7e00bc>
    19e0:	43 fd       	sbrc	r20, 3
    19e2:	d6 cf       	rjmp	.-84     	; 0x1990 <twi_readFrom.constprop.87+0x50>
    19e4:	25 ec       	ldi	r18, 0xC5	; 197
    19e6:	20 93 bc 00 	sts	0x00BC, r18	; 0x8000bc <__TEXT_REGION_LENGTH__+0x7e00bc>
    19ea:	00 e0       	ldi	r16, 0x00	; 0
    19ec:	10 e0       	ldi	r17, 0x00	; 0
    19ee:	98 01       	movw	r18, r16
    19f0:	40 91 9b 04 	lds	r20, 0x049B	; 0x80049b <_state>
    19f4:	42 30       	cpi	r20, 0x02	; 2
    19f6:	09 f4       	brne	.+2      	; 0x19fa <twi_readFrom.constprop.87+0xba>
    19f8:	40 c0       	rjmp	.+128    	; 0x1a7a <twi_readFrom.constprop.87+0x13a>
    19fa:	20 91 98 04 	lds	r18, 0x0498	; 0x800498 <_buf_idx>
    19fe:	26 17       	cp	r18, r22
    1a00:	10 f4       	brcc	.+4      	; 0x1a06 <twi_readFrom.constprop.87+0xc6>
    1a02:	60 91 98 04 	lds	r22, 0x0498	; 0x800498 <_buf_idx>
    1a06:	a5 e7       	ldi	r26, 0x75	; 117
    1a08:	b4 e0       	ldi	r27, 0x04	; 4
    1a0a:	28 2f       	mov	r18, r24
    1a0c:	fc 01       	movw	r30, r24
    1a0e:	8e 2f       	mov	r24, r30
    1a10:	82 1b       	sub	r24, r18
    1a12:	86 17       	cp	r24, r22
    1a14:	f8 f4       	brcc	.+62     	; 0x1a54 <twi_readFrom.constprop.87+0x114>
    1a16:	8d 91       	ld	r24, X+
    1a18:	81 93       	st	Z+, r24
    1a1a:	f9 cf       	rjmp	.-14     	; 0x1a0e <twi_readFrom.constprop.87+0xce>
    1a1c:	c0 90 9c 04 	lds	r12, 0x049C	; 0x80049c <_timeout_us>
    1a20:	d0 90 9d 04 	lds	r13, 0x049D	; 0x80049d <_timeout_us+0x1>
    1a24:	e0 90 9e 04 	lds	r14, 0x049E	; 0x80049e <_timeout_us+0x2>
    1a28:	f0 90 9f 04 	lds	r15, 0x049F	; 0x80049f <_timeout_us+0x3>
    1a2c:	cd 28       	or	r12, r13
    1a2e:	ce 28       	or	r12, r14
    1a30:	cf 28       	or	r12, r15
    1a32:	c1 f0       	breq	.+48     	; 0x1a64 <twi_readFrom.constprop.87+0x124>
    1a34:	c0 90 9c 04 	lds	r12, 0x049C	; 0x80049c <_timeout_us>
    1a38:	d0 90 9d 04 	lds	r13, 0x049D	; 0x80049d <_timeout_us+0x1>
    1a3c:	e0 90 9e 04 	lds	r14, 0x049E	; 0x80049e <_timeout_us+0x2>
    1a40:	f0 90 9f 04 	lds	r15, 0x049F	; 0x80049f <_timeout_us+0x3>
    1a44:	0c 15       	cp	r16, r12
    1a46:	1d 05       	cpc	r17, r13
    1a48:	2e 05       	cpc	r18, r14
    1a4a:	3f 05       	cpc	r19, r15
    1a4c:	58 f0       	brcs	.+22     	; 0x1a64 <twi_readFrom.constprop.87+0x124>
    1a4e:	0e 94 c5 02 	call	0x58a	; 0x58a <_twi_handle_timeout>
    1a52:	60 e0       	ldi	r22, 0x00	; 0
    1a54:	86 2f       	mov	r24, r22
    1a56:	1f 91       	pop	r17
    1a58:	0f 91       	pop	r16
    1a5a:	ff 90       	pop	r15
    1a5c:	ef 90       	pop	r14
    1a5e:	df 90       	pop	r13
    1a60:	cf 90       	pop	r12
    1a62:	08 95       	ret
    1a64:	45 e1       	ldi	r20, 0x15	; 21
    1a66:	4a 95       	dec	r20
    1a68:	f1 f7       	brne	.-4      	; 0x1a66 <twi_readFrom.constprop.87+0x126>
    1a6a:	00 00       	nop
    1a6c:	0c 5f       	subi	r16, 0xFC	; 252
    1a6e:	1f 4f       	sbci	r17, 0xFF	; 255
    1a70:	2f 4f       	sbci	r18, 0xFF	; 255
    1a72:	3f 4f       	sbci	r19, 0xFF	; 255
    1a74:	6e cf       	rjmp	.-292    	; 0x1952 <twi_readFrom.constprop.87+0x12>
    1a76:	25 ee       	ldi	r18, 0xE5	; 229
    1a78:	b6 cf       	rjmp	.-148    	; 0x19e6 <twi_readFrom.constprop.87+0xa6>
    1a7a:	c0 90 9c 04 	lds	r12, 0x049C	; 0x80049c <_timeout_us>
    1a7e:	d0 90 9d 04 	lds	r13, 0x049D	; 0x80049d <_timeout_us+0x1>
    1a82:	e0 90 9e 04 	lds	r14, 0x049E	; 0x80049e <_timeout_us+0x2>
    1a86:	f0 90 9f 04 	lds	r15, 0x049F	; 0x80049f <_timeout_us+0x3>
    1a8a:	cd 28       	or	r12, r13
    1a8c:	ce 28       	or	r12, r14
    1a8e:	cf 28       	or	r12, r15
    1a90:	69 f0       	breq	.+26     	; 0x1aac <twi_readFrom.constprop.87+0x16c>
    1a92:	c0 90 9c 04 	lds	r12, 0x049C	; 0x80049c <_timeout_us>
    1a96:	d0 90 9d 04 	lds	r13, 0x049D	; 0x80049d <_timeout_us+0x1>
    1a9a:	e0 90 9e 04 	lds	r14, 0x049E	; 0x80049e <_timeout_us+0x2>
    1a9e:	f0 90 9f 04 	lds	r15, 0x049F	; 0x80049f <_timeout_us+0x3>
    1aa2:	0c 15       	cp	r16, r12
    1aa4:	1d 05       	cpc	r17, r13
    1aa6:	2e 05       	cpc	r18, r14
    1aa8:	3f 05       	cpc	r19, r15
    1aaa:	88 f6       	brcc	.-94     	; 0x1a4e <twi_readFrom.constprop.87+0x10e>
    1aac:	45 e1       	ldi	r20, 0x15	; 21
    1aae:	4a 95       	dec	r20
    1ab0:	f1 f7       	brne	.-4      	; 0x1aae <twi_readFrom.constprop.87+0x16e>
    1ab2:	00 00       	nop
    1ab4:	0c 5f       	subi	r16, 0xFC	; 252
    1ab6:	1f 4f       	sbci	r17, 0xFF	; 255
    1ab8:	2f 4f       	sbci	r18, 0xFF	; 255
    1aba:	3f 4f       	sbci	r19, 0xFF	; 255
    1abc:	99 cf       	rjmp	.-206    	; 0x19f0 <twi_readFrom.constprop.87+0xb0>

00001abe <_ZN7TwoWire15endTransmissionEh.constprop.83>:
    1abe:	cf 92       	push	r12
    1ac0:	df 92       	push	r13
    1ac2:	ef 92       	push	r14
    1ac4:	ff 92       	push	r15
    1ac6:	20 91 e7 04 	lds	r18, 0x04E7	; 0x8004e7 <Wire+0x21>
    1aca:	80 91 c6 04 	lds	r24, 0x04C6	; 0x8004c6 <Wire>
    1ace:	40 e0       	ldi	r20, 0x00	; 0
    1ad0:	50 e0       	ldi	r21, 0x00	; 0
    1ad2:	ba 01       	movw	r22, r20
    1ad4:	21 32       	cpi	r18, 0x21	; 33
    1ad6:	58 f1       	brcs	.+86     	; 0x1b2e <_ZN7TwoWire15endTransmissionEh.constprop.83+0x70>
    1ad8:	81 e0       	ldi	r24, 0x01	; 1
    1ada:	1c c0       	rjmp	.+56     	; 0x1b14 <_ZN7TwoWire15endTransmissionEh.constprop.83+0x56>
    1adc:	c0 90 9c 04 	lds	r12, 0x049C	; 0x80049c <_timeout_us>
    1ae0:	d0 90 9d 04 	lds	r13, 0x049D	; 0x80049d <_timeout_us+0x1>
    1ae4:	e0 90 9e 04 	lds	r14, 0x049E	; 0x80049e <_timeout_us+0x2>
    1ae8:	f0 90 9f 04 	lds	r15, 0x049F	; 0x80049f <_timeout_us+0x3>
    1aec:	cd 28       	or	r12, r13
    1aee:	ce 28       	or	r12, r14
    1af0:	cf 28       	or	r12, r15
    1af2:	a9 f0       	breq	.+42     	; 0x1b1e <_ZN7TwoWire15endTransmissionEh.constprop.83+0x60>
    1af4:	c0 90 9c 04 	lds	r12, 0x049C	; 0x80049c <_timeout_us>
    1af8:	d0 90 9d 04 	lds	r13, 0x049D	; 0x80049d <_timeout_us+0x1>
    1afc:	e0 90 9e 04 	lds	r14, 0x049E	; 0x80049e <_timeout_us+0x2>
    1b00:	f0 90 9f 04 	lds	r15, 0x049F	; 0x80049f <_timeout_us+0x3>
    1b04:	4c 15       	cp	r20, r12
    1b06:	5d 05       	cpc	r21, r13
    1b08:	6e 05       	cpc	r22, r14
    1b0a:	7f 05       	cpc	r23, r15
    1b0c:	40 f0       	brcs	.+16     	; 0x1b1e <_ZN7TwoWire15endTransmissionEh.constprop.83+0x60>
    1b0e:	0e 94 c5 02 	call	0x58a	; 0x58a <_twi_handle_timeout>
    1b12:	85 e0       	ldi	r24, 0x05	; 5
    1b14:	ff 90       	pop	r15
    1b16:	ef 90       	pop	r14
    1b18:	df 90       	pop	r13
    1b1a:	cf 90       	pop	r12
    1b1c:	08 95       	ret
    1b1e:	95 e1       	ldi	r25, 0x15	; 21
    1b20:	9a 95       	dec	r25
    1b22:	f1 f7       	brne	.-4      	; 0x1b20 <_ZN7TwoWire15endTransmissionEh.constprop.83+0x62>
    1b24:	00 00       	nop
    1b26:	4c 5f       	subi	r20, 0xFC	; 252
    1b28:	5f 4f       	sbci	r21, 0xFF	; 255
    1b2a:	6f 4f       	sbci	r22, 0xFF	; 255
    1b2c:	7f 4f       	sbci	r23, 0xFF	; 255
    1b2e:	90 91 9b 04 	lds	r25, 0x049B	; 0x80049b <_state>
    1b32:	91 11       	cpse	r25, r1
    1b34:	d3 cf       	rjmp	.-90     	; 0x1adc <_ZN7TwoWire15endTransmissionEh.constprop.83+0x1e>
    1b36:	91 e0       	ldi	r25, 0x01	; 1
    1b38:	90 93 9b 04 	sts	0x049B, r25	; 0x80049b <_state>
    1b3c:	90 93 9a 04 	sts	0x049A, r25	; 0x80049a <_send_stop>
    1b40:	9f ef       	ldi	r25, 0xFF	; 255
    1b42:	90 93 99 04 	sts	0x0499, r25	; 0x800499 <_error>
    1b46:	10 92 98 04 	sts	0x0498, r1	; 0x800498 <_buf_idx>
    1b4a:	20 93 97 04 	sts	0x0497, r18	; 0x800497 <_buf_len>
    1b4e:	90 e0       	ldi	r25, 0x00	; 0
    1b50:	88 0f       	add	r24, r24
    1b52:	99 1f       	adc	r25, r25
    1b54:	80 93 96 04 	sts	0x0496, r24	; 0x800496 <_slarw>
    1b58:	a7 ec       	ldi	r26, 0xC7	; 199
    1b5a:	b4 e0       	ldi	r27, 0x04	; 4
    1b5c:	e5 e7       	ldi	r30, 0x75	; 117
    1b5e:	f4 e0       	ldi	r31, 0x04	; 4
    1b60:	80 e0       	ldi	r24, 0x00	; 0
    1b62:	28 13       	cpse	r18, r24
    1b64:	4b c0       	rjmp	.+150    	; 0x1bfc <_ZN7TwoWire15endTransmissionEh.constprop.83+0x13e>
    1b66:	80 91 95 04 	lds	r24, 0x0495	; 0x800495 <_rep_start>
    1b6a:	88 23       	and	r24, r24
    1b6c:	09 f4       	brne	.+2      	; 0x1b70 <_ZN7TwoWire15endTransmissionEh.constprop.83+0xb2>
    1b6e:	4a c0       	rjmp	.+148    	; 0x1c04 <_ZN7TwoWire15endTransmissionEh.constprop.83+0x146>
    1b70:	10 92 95 04 	sts	0x0495, r1	; 0x800495 <_rep_start>
    1b74:	80 e0       	ldi	r24, 0x00	; 0
    1b76:	90 e0       	ldi	r25, 0x00	; 0
    1b78:	dc 01       	movw	r26, r24
    1b7a:	20 91 96 04 	lds	r18, 0x0496	; 0x800496 <_slarw>
    1b7e:	20 93 bb 00 	sts	0x00BB, r18	; 0x8000bb <__TEXT_REGION_LENGTH__+0x7e00bb>
    1b82:	40 91 9c 04 	lds	r20, 0x049C	; 0x80049c <_timeout_us>
    1b86:	50 91 9d 04 	lds	r21, 0x049D	; 0x80049d <_timeout_us+0x1>
    1b8a:	60 91 9e 04 	lds	r22, 0x049E	; 0x80049e <_timeout_us+0x2>
    1b8e:	70 91 9f 04 	lds	r23, 0x049F	; 0x80049f <_timeout_us+0x3>
    1b92:	45 2b       	or	r20, r21
    1b94:	46 2b       	or	r20, r22
    1b96:	47 2b       	or	r20, r23
    1b98:	71 f0       	breq	.+28     	; 0x1bb6 <_ZN7TwoWire15endTransmissionEh.constprop.83+0xf8>
    1b9a:	40 91 9c 04 	lds	r20, 0x049C	; 0x80049c <_timeout_us>
    1b9e:	50 91 9d 04 	lds	r21, 0x049D	; 0x80049d <_timeout_us+0x1>
    1ba2:	60 91 9e 04 	lds	r22, 0x049E	; 0x80049e <_timeout_us+0x2>
    1ba6:	70 91 9f 04 	lds	r23, 0x049F	; 0x80049f <_timeout_us+0x3>
    1baa:	84 17       	cp	r24, r20
    1bac:	95 07       	cpc	r25, r21
    1bae:	a6 07       	cpc	r26, r22
    1bb0:	b7 07       	cpc	r27, r23
    1bb2:	08 f0       	brcs	.+2      	; 0x1bb6 <_ZN7TwoWire15endTransmissionEh.constprop.83+0xf8>
    1bb4:	ac cf       	rjmp	.-168    	; 0x1b0e <_ZN7TwoWire15endTransmissionEh.constprop.83+0x50>
    1bb6:	25 e1       	ldi	r18, 0x15	; 21
    1bb8:	2a 95       	dec	r18
    1bba:	f1 f7       	brne	.-4      	; 0x1bb8 <_ZN7TwoWire15endTransmissionEh.constprop.83+0xfa>
    1bbc:	00 00       	nop
    1bbe:	04 96       	adiw	r24, 0x04	; 4
    1bc0:	a1 1d       	adc	r26, r1
    1bc2:	b1 1d       	adc	r27, r1
    1bc4:	20 91 bc 00 	lds	r18, 0x00BC	; 0x8000bc <__TEXT_REGION_LENGTH__+0x7e00bc>
    1bc8:	23 fd       	sbrc	r18, 3
    1bca:	d7 cf       	rjmp	.-82     	; 0x1b7a <_ZN7TwoWire15endTransmissionEh.constprop.83+0xbc>
    1bcc:	85 ec       	ldi	r24, 0xC5	; 197
    1bce:	80 93 bc 00 	sts	0x00BC, r24	; 0x8000bc <__TEXT_REGION_LENGTH__+0x7e00bc>
    1bd2:	80 e0       	ldi	r24, 0x00	; 0
    1bd4:	90 e0       	ldi	r25, 0x00	; 0
    1bd6:	dc 01       	movw	r26, r24
    1bd8:	20 91 9b 04 	lds	r18, 0x049B	; 0x80049b <_state>
    1bdc:	21 30       	cpi	r18, 0x01	; 1
    1bde:	a1 f0       	breq	.+40     	; 0x1c08 <_ZN7TwoWire15endTransmissionEh.constprop.83+0x14a>
    1be0:	80 91 99 04 	lds	r24, 0x0499	; 0x800499 <_error>
    1be4:	8f 3f       	cpi	r24, 0xFF	; 255
    1be6:	91 f1       	breq	.+100    	; 0x1c4c <_ZN7TwoWire15endTransmissionEh.constprop.83+0x18e>
    1be8:	80 91 99 04 	lds	r24, 0x0499	; 0x800499 <_error>
    1bec:	80 32       	cpi	r24, 0x20	; 32
    1bee:	81 f1       	breq	.+96     	; 0x1c50 <_ZN7TwoWire15endTransmissionEh.constprop.83+0x192>
    1bf0:	80 91 99 04 	lds	r24, 0x0499	; 0x800499 <_error>
    1bf4:	80 33       	cpi	r24, 0x30	; 48
    1bf6:	71 f1       	breq	.+92     	; 0x1c54 <_ZN7TwoWire15endTransmissionEh.constprop.83+0x196>
    1bf8:	84 e0       	ldi	r24, 0x04	; 4
    1bfa:	8c cf       	rjmp	.-232    	; 0x1b14 <_ZN7TwoWire15endTransmissionEh.constprop.83+0x56>
    1bfc:	9d 91       	ld	r25, X+
    1bfe:	91 93       	st	Z+, r25
    1c00:	8f 5f       	subi	r24, 0xFF	; 255
    1c02:	af cf       	rjmp	.-162    	; 0x1b62 <_ZN7TwoWire15endTransmissionEh.constprop.83+0xa4>
    1c04:	85 ee       	ldi	r24, 0xE5	; 229
    1c06:	e3 cf       	rjmp	.-58     	; 0x1bce <_ZN7TwoWire15endTransmissionEh.constprop.83+0x110>
    1c08:	40 91 9c 04 	lds	r20, 0x049C	; 0x80049c <_timeout_us>
    1c0c:	50 91 9d 04 	lds	r21, 0x049D	; 0x80049d <_timeout_us+0x1>
    1c10:	60 91 9e 04 	lds	r22, 0x049E	; 0x80049e <_timeout_us+0x2>
    1c14:	70 91 9f 04 	lds	r23, 0x049F	; 0x80049f <_timeout_us+0x3>
    1c18:	45 2b       	or	r20, r21
    1c1a:	46 2b       	or	r20, r22
    1c1c:	47 2b       	or	r20, r23
    1c1e:	71 f0       	breq	.+28     	; 0x1c3c <_ZN7TwoWire15endTransmissionEh.constprop.83+0x17e>
    1c20:	40 91 9c 04 	lds	r20, 0x049C	; 0x80049c <_timeout_us>
    1c24:	50 91 9d 04 	lds	r21, 0x049D	; 0x80049d <_timeout_us+0x1>
    1c28:	60 91 9e 04 	lds	r22, 0x049E	; 0x80049e <_timeout_us+0x2>
    1c2c:	70 91 9f 04 	lds	r23, 0x049F	; 0x80049f <_timeout_us+0x3>
    1c30:	84 17       	cp	r24, r20
    1c32:	95 07       	cpc	r25, r21
    1c34:	a6 07       	cpc	r26, r22
    1c36:	b7 07       	cpc	r27, r23
    1c38:	08 f0       	brcs	.+2      	; 0x1c3c <_ZN7TwoWire15endTransmissionEh.constprop.83+0x17e>
    1c3a:	69 cf       	rjmp	.-302    	; 0x1b0e <_ZN7TwoWire15endTransmissionEh.constprop.83+0x50>
    1c3c:	25 e1       	ldi	r18, 0x15	; 21
    1c3e:	2a 95       	dec	r18
    1c40:	f1 f7       	brne	.-4      	; 0x1c3e <_ZN7TwoWire15endTransmissionEh.constprop.83+0x180>
    1c42:	00 00       	nop
    1c44:	04 96       	adiw	r24, 0x04	; 4
    1c46:	a1 1d       	adc	r26, r1
    1c48:	b1 1d       	adc	r27, r1
    1c4a:	c6 cf       	rjmp	.-116    	; 0x1bd8 <_ZN7TwoWire15endTransmissionEh.constprop.83+0x11a>
    1c4c:	80 e0       	ldi	r24, 0x00	; 0
    1c4e:	62 cf       	rjmp	.-316    	; 0x1b14 <_ZN7TwoWire15endTransmissionEh.constprop.83+0x56>
    1c50:	82 e0       	ldi	r24, 0x02	; 2
    1c52:	60 cf       	rjmp	.-320    	; 0x1b14 <_ZN7TwoWire15endTransmissionEh.constprop.83+0x56>
    1c54:	83 e0       	ldi	r24, 0x03	; 3
    1c56:	5e cf       	rjmp	.-324    	; 0x1b14 <_ZN7TwoWire15endTransmissionEh.constprop.83+0x56>

00001c58 <_ZN7Modules6DS32316adjustERKNS0_8DateTimeE>:
    1c58:	ff 92       	push	r15
    1c5a:	0f 93       	push	r16
    1c5c:	1f 93       	push	r17
    1c5e:	cf 93       	push	r28
    1c60:	df 93       	push	r29
    1c62:	00 d0       	rcall	.+0      	; 0x1c64 <_ZN7Modules6DS32316adjustERKNS0_8DateTimeE+0xc>
    1c64:	00 d0       	rcall	.+0      	; 0x1c66 <_ZN7Modules6DS32316adjustERKNS0_8DateTimeE+0xe>
    1c66:	00 d0       	rcall	.+0      	; 0x1c68 <_ZN7Modules6DS32316adjustERKNS0_8DateTimeE+0x10>
    1c68:	cd b7       	in	r28, 0x3d	; 61
    1c6a:	de b7       	in	r29, 0x3e	; 62
    1c6c:	8c 01       	movw	r16, r24
    1c6e:	0e 94 f4 02 	call	0x5e8	; 0x5e8 <_ZN7Modules6DS3231L7isValidERKNS0_8DateTimeE>
    1c72:	98 2f       	mov	r25, r24
    1c74:	88 23       	and	r24, r24
    1c76:	09 f4       	brne	.+2      	; 0x1c7a <_ZN7Modules6DS32316adjustERKNS0_8DateTimeE+0x22>
    1c78:	67 c0       	rjmp	.+206    	; 0x1d48 <_ZN7Modules6DS32316adjustERKNS0_8DateTimeE+0xf0>
    1c7a:	ff 24       	eor	r15, r15
    1c7c:	f3 94       	inc	r15
    1c7e:	fb 82       	std	Y+3, r15	; 0x03
    1c80:	f8 01       	movw	r30, r16
    1c82:	80 81       	ld	r24, Z
    1c84:	0e 94 0d 03 	call	0x61a	; 0x61a <_ZN7Modules6DS3231L8decToBcdEh>
    1c88:	89 83       	std	Y+1, r24	; 0x01
    1c8a:	f8 01       	movw	r30, r16
    1c8c:	81 81       	ldd	r24, Z+1	; 0x01
    1c8e:	0e 94 0d 03 	call	0x61a	; 0x61a <_ZN7Modules6DS3231L8decToBcdEh>
    1c92:	8a 83       	std	Y+2, r24	; 0x02
    1c94:	f8 01       	movw	r30, r16
    1c96:	82 81       	ldd	r24, Z+2	; 0x02
    1c98:	0e 94 0d 03 	call	0x61a	; 0x61a <_ZN7Modules6DS3231L8decToBcdEh>
    1c9c:	8c 83       	std	Y+4, r24	; 0x04
    1c9e:	f8 01       	movw	r30, r16
    1ca0:	83 81       	ldd	r24, Z+3	; 0x03
    1ca2:	0e 94 0d 03 	call	0x61a	; 0x61a <_ZN7Modules6DS3231L8decToBcdEh>
    1ca6:	8d 83       	std	Y+5, r24	; 0x05
    1ca8:	f8 01       	movw	r30, r16
    1caa:	84 81       	ldd	r24, Z+4	; 0x04
    1cac:	80 5d       	subi	r24, 0xD0	; 208
    1cae:	0e 94 0d 03 	call	0x61a	; 0x61a <_ZN7Modules6DS3231L8decToBcdEh>
    1cb2:	8e 83       	std	Y+6, r24	; 0x06
    1cb4:	88 e6       	ldi	r24, 0x68	; 104
    1cb6:	80 93 c6 04 	sts	0x04C6, r24	; 0x8004c6 <Wire>
    1cba:	f0 92 e7 04 	sts	0x04E7, r15	; 0x8004e7 <Wire+0x21>
    1cbe:	f0 92 c7 04 	sts	0x04C7, r15	; 0x8004c7 <Wire+0x1>
    1cc2:	fe 01       	movw	r30, r28
    1cc4:	31 96       	adiw	r30, 0x01	; 1
    1cc6:	96 e0       	ldi	r25, 0x06	; 6
    1cc8:	81 e0       	ldi	r24, 0x01	; 1
    1cca:	80 32       	cpi	r24, 0x20	; 32
    1ccc:	40 f4       	brcc	.+16     	; 0x1cde <_ZN7Modules6DS32316adjustERKNS0_8DateTimeE+0x86>
    1cce:	a8 2f       	mov	r26, r24
    1cd0:	b0 e0       	ldi	r27, 0x00	; 0
    1cd2:	aa 53       	subi	r26, 0x3A	; 58
    1cd4:	bb 4f       	sbci	r27, 0xFB	; 251
    1cd6:	20 81       	ld	r18, Z
    1cd8:	11 96       	adiw	r26, 0x01	; 1
    1cda:	2c 93       	st	X, r18
    1cdc:	8f 5f       	subi	r24, 0xFF	; 255
    1cde:	91 50       	subi	r25, 0x01	; 1
    1ce0:	31 96       	adiw	r30, 0x01	; 1
    1ce2:	91 11       	cpse	r25, r1
    1ce4:	f2 cf       	rjmp	.-28     	; 0x1cca <_ZN7Modules6DS32316adjustERKNS0_8DateTimeE+0x72>
    1ce6:	80 93 e7 04 	sts	0x04E7, r24	; 0x8004e7 <Wire+0x21>
    1cea:	e9 de       	rcall	.-558    	; 0x1abe <_ZN7TwoWire15endTransmissionEh.constprop.83>
    1cec:	88 23       	and	r24, r24
    1cee:	11 f0       	breq	.+4      	; 0x1cf4 <_ZN7Modules6DS32316adjustERKNS0_8DateTimeE+0x9c>
    1cf0:	90 e0       	ldi	r25, 0x00	; 0
    1cf2:	2a c0       	rjmp	.+84     	; 0x1d48 <_ZN7Modules6DS32316adjustERKNS0_8DateTimeE+0xf0>
    1cf4:	08 e6       	ldi	r16, 0x68	; 104
    1cf6:	00 93 c6 04 	sts	0x04C6, r16	; 0x8004c6 <Wire>
    1cfa:	ff 24       	eor	r15, r15
    1cfc:	f3 94       	inc	r15
    1cfe:	f0 92 e7 04 	sts	0x04E7, r15	; 0x8004e7 <Wire+0x21>
    1d02:	1f e0       	ldi	r17, 0x0F	; 15
    1d04:	10 93 c7 04 	sts	0x04C7, r17	; 0x8004c7 <Wire+0x1>
    1d08:	da de       	rcall	.-588    	; 0x1abe <_ZN7TwoWire15endTransmissionEh.constprop.83>
    1d0a:	81 11       	cpse	r24, r1
    1d0c:	f1 cf       	rjmp	.-30     	; 0x1cf0 <_ZN7Modules6DS32316adjustERKNS0_8DateTimeE+0x98>
    1d0e:	61 e0       	ldi	r22, 0x01	; 1
    1d10:	88 ee       	ldi	r24, 0xE8	; 232
    1d12:	94 e0       	ldi	r25, 0x04	; 4
    1d14:	15 de       	rcall	.-982    	; 0x1940 <twi_readFrom.constprop.87>
    1d16:	80 93 09 05 	sts	0x0509, r24	; 0x800509 <Wire+0x43>
    1d1a:	81 11       	cpse	r24, r1
    1d1c:	03 c0       	rjmp	.+6      	; 0x1d24 <_ZN7Modules6DS32316adjustERKNS0_8DateTimeE+0xcc>
    1d1e:	10 92 08 05 	sts	0x0508, r1	; 0x800508 <Wire+0x42>
    1d22:	e6 cf       	rjmp	.-52     	; 0x1cf0 <_ZN7Modules6DS32316adjustERKNS0_8DateTimeE+0x98>
    1d24:	f0 92 08 05 	sts	0x0508, r15	; 0x800508 <Wire+0x42>
    1d28:	80 91 e8 04 	lds	r24, 0x04E8	; 0x8004e8 <Wire+0x22>
    1d2c:	8f 77       	andi	r24, 0x7F	; 127
    1d2e:	00 93 c6 04 	sts	0x04C6, r16	; 0x8004c6 <Wire>
    1d32:	10 93 c7 04 	sts	0x04C7, r17	; 0x8004c7 <Wire+0x1>
    1d36:	92 e0       	ldi	r25, 0x02	; 2
    1d38:	90 93 e7 04 	sts	0x04E7, r25	; 0x8004e7 <Wire+0x21>
    1d3c:	80 93 c8 04 	sts	0x04C8, r24	; 0x8004c8 <Wire+0x2>
    1d40:	be de       	rcall	.-644    	; 0x1abe <_ZN7TwoWire15endTransmissionEh.constprop.83>
    1d42:	91 e0       	ldi	r25, 0x01	; 1
    1d44:	81 11       	cpse	r24, r1
    1d46:	d4 cf       	rjmp	.-88     	; 0x1cf0 <_ZN7Modules6DS32316adjustERKNS0_8DateTimeE+0x98>
    1d48:	89 2f       	mov	r24, r25
    1d4a:	26 96       	adiw	r28, 0x06	; 6
    1d4c:	0f b6       	in	r0, 0x3f	; 63
    1d4e:	f8 94       	cli
    1d50:	de bf       	out	0x3e, r29	; 62
    1d52:	0f be       	out	0x3f, r0	; 63
    1d54:	cd bf       	out	0x3d, r28	; 61
    1d56:	df 91       	pop	r29
    1d58:	cf 91       	pop	r28
    1d5a:	1f 91       	pop	r17
    1d5c:	0f 91       	pop	r16
    1d5e:	ff 90       	pop	r15
    1d60:	08 95       	ret

00001d62 <_ZN7Modules6DS3231L13readRegistersEhPhh>:
    1d62:	1f 93       	push	r17
    1d64:	cf 93       	push	r28
    1d66:	df 93       	push	r29
    1d68:	d6 2f       	mov	r29, r22
    1d6a:	17 2f       	mov	r17, r23
    1d6c:	c4 2f       	mov	r28, r20
    1d6e:	98 e6       	ldi	r25, 0x68	; 104
    1d70:	90 93 c6 04 	sts	0x04C6, r25	; 0x8004c6 <Wire>
    1d74:	91 e0       	ldi	r25, 0x01	; 1
    1d76:	90 93 e7 04 	sts	0x04E7, r25	; 0x8004e7 <Wire+0x21>
    1d7a:	80 93 c7 04 	sts	0x04C7, r24	; 0x8004c7 <Wire+0x1>
    1d7e:	9f de       	rcall	.-706    	; 0x1abe <_ZN7TwoWire15endTransmissionEh.constprop.83>
    1d80:	81 11       	cpse	r24, r1
    1d82:	2f c0       	rjmp	.+94     	; 0x1de2 <_ZN7Modules6DS3231L13readRegistersEhPhh+0x80>
    1d84:	6c 2f       	mov	r22, r28
    1d86:	88 ee       	ldi	r24, 0xE8	; 232
    1d88:	94 e0       	ldi	r25, 0x04	; 4
    1d8a:	da dd       	rcall	.-1100   	; 0x1940 <twi_readFrom.constprop.87>
    1d8c:	80 93 09 05 	sts	0x0509, r24	; 0x800509 <Wire+0x43>
    1d90:	10 92 08 05 	sts	0x0508, r1	; 0x800508 <Wire+0x42>
    1d94:	8c 17       	cp	r24, r28
    1d96:	d8 f0       	brcs	.+54     	; 0x1dce <_ZN7Modules6DS3231L13readRegistersEhPhh+0x6c>
    1d98:	2d 2f       	mov	r18, r29
    1d9a:	ad 2f       	mov	r26, r29
    1d9c:	b1 2f       	mov	r27, r17
    1d9e:	e0 91 08 05 	lds	r30, 0x0508	; 0x800508 <Wire+0x42>
    1da2:	80 91 09 05 	lds	r24, 0x0509	; 0x800509 <Wire+0x43>
    1da6:	e8 17       	cp	r30, r24
    1da8:	78 f4       	brcc	.+30     	; 0x1dc8 <_ZN7Modules6DS3231L13readRegistersEhPhh+0x66>
    1daa:	81 e0       	ldi	r24, 0x01	; 1
    1dac:	8e 0f       	add	r24, r30
    1dae:	80 93 08 05 	sts	0x0508, r24	; 0x800508 <Wire+0x42>
    1db2:	f0 e0       	ldi	r31, 0x00	; 0
    1db4:	ea 53       	subi	r30, 0x3A	; 58
    1db6:	fb 4f       	sbci	r31, 0xFB	; 251
    1db8:	82 a1       	ldd	r24, Z+34	; 0x22
    1dba:	8d 93       	st	X+, r24
    1dbc:	8a 2f       	mov	r24, r26
    1dbe:	82 1b       	sub	r24, r18
    1dc0:	8c 17       	cp	r24, r28
    1dc2:	68 f3       	brcs	.-38     	; 0x1d9e <_ZN7Modules6DS3231L13readRegistersEhPhh+0x3c>
    1dc4:	81 e0       	ldi	r24, 0x01	; 1
    1dc6:	0e c0       	rjmp	.+28     	; 0x1de4 <_ZN7Modules6DS3231L13readRegistersEhPhh+0x82>
    1dc8:	8f ef       	ldi	r24, 0xFF	; 255
    1dca:	9f ef       	ldi	r25, 0xFF	; 255
    1dcc:	f6 cf       	rjmp	.-20     	; 0x1dba <_ZN7Modules6DS3231L13readRegistersEhPhh+0x58>
    1dce:	90 91 08 05 	lds	r25, 0x0508	; 0x800508 <Wire+0x42>
    1dd2:	98 17       	cp	r25, r24
    1dd4:	31 f0       	breq	.+12     	; 0x1de2 <_ZN7Modules6DS3231L13readRegistersEhPhh+0x80>
    1dd6:	98 17       	cp	r25, r24
    1dd8:	e0 f7       	brcc	.-8      	; 0x1dd2 <_ZN7Modules6DS3231L13readRegistersEhPhh+0x70>
    1dda:	9f 5f       	subi	r25, 0xFF	; 255
    1ddc:	90 93 08 05 	sts	0x0508, r25	; 0x800508 <Wire+0x42>
    1de0:	f6 cf       	rjmp	.-20     	; 0x1dce <_ZN7Modules6DS3231L13readRegistersEhPhh+0x6c>
    1de2:	80 e0       	ldi	r24, 0x00	; 0
    1de4:	df 91       	pop	r29
    1de6:	cf 91       	pop	r28
    1de8:	1f 91       	pop	r17
    1dea:	08 95       	ret

00001dec <_ZN7Modules6DS32313nowERNS0_8DateTimeE>:
    1dec:	0f 93       	push	r16
    1dee:	1f 93       	push	r17
    1df0:	cf 93       	push	r28
    1df2:	df 93       	push	r29
    1df4:	cd b7       	in	r28, 0x3d	; 61
    1df6:	de b7       	in	r29, 0x3e	; 62
    1df8:	2c 97       	sbiw	r28, 0x0c	; 12
    1dfa:	0f b6       	in	r0, 0x3f	; 63
    1dfc:	f8 94       	cli
    1dfe:	de bf       	out	0x3e, r29	; 62
    1e00:	0f be       	out	0x3f, r0	; 63
    1e02:	cd bf       	out	0x3d, r28	; 61
    1e04:	8c 01       	movw	r16, r24
    1e06:	46 e0       	ldi	r20, 0x06	; 6
    1e08:	be 01       	movw	r22, r28
    1e0a:	6f 5f       	subi	r22, 0xFF	; 255
    1e0c:	7f 4f       	sbci	r23, 0xFF	; 255
    1e0e:	81 e0       	ldi	r24, 0x01	; 1
    1e10:	a8 df       	rcall	.-176    	; 0x1d62 <_ZN7Modules6DS3231L13readRegistersEhPhh>
    1e12:	81 11       	cpse	r24, r1
    1e14:	0c c0       	rjmp	.+24     	; 0x1e2e <_ZN7Modules6DS32313nowERNS0_8DateTimeE+0x42>
    1e16:	80 e0       	ldi	r24, 0x00	; 0
    1e18:	2c 96       	adiw	r28, 0x0c	; 12
    1e1a:	0f b6       	in	r0, 0x3f	; 63
    1e1c:	f8 94       	cli
    1e1e:	de bf       	out	0x3e, r29	; 62
    1e20:	0f be       	out	0x3f, r0	; 63
    1e22:	cd bf       	out	0x3d, r28	; 61
    1e24:	df 91       	pop	r29
    1e26:	cf 91       	pop	r28
    1e28:	1f 91       	pop	r17
    1e2a:	0f 91       	pop	r16
    1e2c:	08 95       	ret
    1e2e:	89 81       	ldd	r24, Y+1	; 0x01
    1e30:	8f 77       	andi	r24, 0x7F	; 127
    1e32:	0e 94 21 03 	call	0x642	; 0x642 <_ZN7Modules6DS3231L8bcdToDecEh>
    1e36:	8f 83       	std	Y+7, r24	; 0x07
    1e38:	8a 81       	ldd	r24, Y+2	; 0x02
    1e3a:	8f 73       	andi	r24, 0x3F	; 63
    1e3c:	0e 94 21 03 	call	0x642	; 0x642 <_ZN7Modules6DS3231L8bcdToDecEh>
    1e40:	88 87       	std	Y+8, r24	; 0x08
    1e42:	8c 81       	ldd	r24, Y+4	; 0x04
    1e44:	8f 73       	andi	r24, 0x3F	; 63
    1e46:	0e 94 21 03 	call	0x642	; 0x642 <_ZN7Modules6DS3231L8bcdToDecEh>
    1e4a:	89 87       	std	Y+9, r24	; 0x09
    1e4c:	8d 81       	ldd	r24, Y+5	; 0x05
    1e4e:	8f 71       	andi	r24, 0x1F	; 31
    1e50:	0e 94 21 03 	call	0x642	; 0x642 <_ZN7Modules6DS3231L8bcdToDecEh>
    1e54:	8a 87       	std	Y+10, r24	; 0x0a
    1e56:	8e 81       	ldd	r24, Y+6	; 0x06
    1e58:	0e 94 21 03 	call	0x642	; 0x642 <_ZN7Modules6DS3231L8bcdToDecEh>
    1e5c:	90 e0       	ldi	r25, 0x00	; 0
    1e5e:	80 53       	subi	r24, 0x30	; 48
    1e60:	98 4f       	sbci	r25, 0xF8	; 248
    1e62:	9c 87       	std	Y+12, r25	; 0x0c
    1e64:	8b 87       	std	Y+11, r24	; 0x0b
    1e66:	ce 01       	movw	r24, r28
    1e68:	07 96       	adiw	r24, 0x07	; 7
    1e6a:	0e 94 f4 02 	call	0x5e8	; 0x5e8 <_ZN7Modules6DS3231L7isValidERKNS0_8DateTimeE>
    1e6e:	88 23       	and	r24, r24
    1e70:	91 f2       	breq	.-92     	; 0x1e16 <_ZN7Modules6DS32313nowERNS0_8DateTimeE+0x2a>
    1e72:	96 e0       	ldi	r25, 0x06	; 6
    1e74:	fe 01       	movw	r30, r28
    1e76:	37 96       	adiw	r30, 0x07	; 7
    1e78:	d8 01       	movw	r26, r16
    1e7a:	01 90       	ld	r0, Z+
    1e7c:	0d 92       	st	X+, r0
    1e7e:	9a 95       	dec	r25
    1e80:	e1 f7       	brne	.-8      	; 0x1e7a <_ZN7Modules6DS32313nowERNS0_8DateTimeE+0x8e>
    1e82:	ca cf       	rjmp	.-108    	; 0x1e18 <_ZN7Modules6DS32313nowERNS0_8DateTimeE+0x2c>

00001e84 <_Z9onDateSethh>:
    1e84:	df 92       	push	r13
    1e86:	ef 92       	push	r14
    1e88:	ff 92       	push	r15
    1e8a:	0f 93       	push	r16
    1e8c:	1f 93       	push	r17
    1e8e:	cf 93       	push	r28
    1e90:	df 93       	push	r29
    1e92:	00 d0       	rcall	.+0      	; 0x1e94 <_Z9onDateSethh+0x10>
    1e94:	00 d0       	rcall	.+0      	; 0x1e96 <_Z9onDateSethh+0x12>
    1e96:	00 d0       	rcall	.+0      	; 0x1e98 <_Z9onDateSethh+0x14>
    1e98:	cd b7       	in	r28, 0x3d	; 61
    1e9a:	de b7       	in	r29, 0x3e	; 62
    1e9c:	e6 2e       	mov	r14, r22
    1e9e:	d0 90 14 02 	lds	r13, 0x0214	; 0x800214 <_ZN6ConfigL7entriesE+0x104>
    1ea2:	f0 90 21 02 	lds	r15, 0x0221	; 0x800221 <_ZN6ConfigL7entriesE+0x111>
    1ea6:	80 91 2e 02 	lds	r24, 0x022E	; 0x80022e <_ZN6ConfigL7entriesE+0x11e>
    1eaa:	10 91 3b 02 	lds	r17, 0x023B	; 0x80023b <_ZN6ConfigL7entriesE+0x12b>
    1eae:	9a e0       	ldi	r25, 0x0A	; 10
    1eb0:	89 9f       	mul	r24, r25
    1eb2:	10 0d       	add	r17, r0
    1eb4:	11 24       	eor	r1, r1
    1eb6:	11 11       	cpse	r17, r1
    1eb8:	57 c0       	rjmp	.+174    	; 0x1f68 <_Z9onDateSethh+0xe4>
    1eba:	e2 e0       	ldi	r30, 0x02	; 2
    1ebc:	61 e0       	ldi	r22, 0x01	; 1
    1ebe:	87 e1       	ldi	r24, 0x17	; 23
    1ec0:	ee 16       	cp	r14, r30
    1ec2:	29 f0       	breq	.+10     	; 0x1ece <_Z9onDateSethh+0x4a>
    1ec4:	60 e0       	ldi	r22, 0x00	; 0
    1ec6:	86 e1       	ldi	r24, 0x16	; 22
    1ec8:	a5 dc       	rcall	.-1718   	; 0x1814 <_ZN6Config3setENS_2IDEh>
    1eca:	61 e0       	ldi	r22, 0x01	; 1
    1ecc:	86 e1       	ldi	r24, 0x16	; 22
    1ece:	a2 dc       	rcall	.-1724   	; 0x1814 <_ZN6Config3setENS_2IDEh>
    1ed0:	80 91 2e 02 	lds	r24, 0x022E	; 0x80022e <_ZN6ConfigL7entriesE+0x11e>
    1ed4:	10 91 3b 02 	lds	r17, 0x023B	; 0x80023b <_ZN6ConfigL7entriesE+0x12b>
    1ed8:	fa e0       	ldi	r31, 0x0A	; 10
    1eda:	8f 9f       	mul	r24, r31
    1edc:	10 0d       	add	r17, r0
    1ede:	11 24       	eor	r1, r1
    1ee0:	ce 01       	movw	r24, r28
    1ee2:	01 96       	adiw	r24, 0x01	; 1
    1ee4:	26 e0       	ldi	r18, 0x06	; 6
    1ee6:	fc 01       	movw	r30, r24
    1ee8:	11 92       	st	Z+, r1
    1eea:	2a 95       	dec	r18
    1eec:	e9 f7       	brne	.-6      	; 0x1ee8 <_Z9onDateSethh+0x64>
    1eee:	7e df       	rcall	.-260    	; 0x1dec <_ZN7Modules6DS32313nowERNS0_8DateTimeE>
    1ef0:	28 2f       	mov	r18, r24
    1ef2:	88 23       	and	r24, r24
    1ef4:	09 f4       	brne	.+2      	; 0x1ef8 <_Z9onDateSethh+0x74>
    1ef6:	66 c0       	rjmp	.+204    	; 0x1fc4 <_Z9onDateSethh+0x140>
    1ef8:	ed 81       	ldd	r30, Y+5	; 0x05
    1efa:	fe 81       	ldd	r31, Y+6	; 0x06
    1efc:	cf 01       	movw	r24, r30
    1efe:	83 70       	andi	r24, 0x03	; 3
    1f00:	99 27       	eor	r25, r25
    1f02:	89 2b       	or	r24, r25
    1f04:	79 f4       	brne	.+30     	; 0x1f24 <_Z9onDateSethh+0xa0>
    1f06:	cf 01       	movw	r24, r30
    1f08:	64 e6       	ldi	r22, 0x64	; 100
    1f0a:	70 e0       	ldi	r23, 0x00	; 0
    1f0c:	0e 94 e1 27 	call	0x4fc2	; 0x4fc2 <__udivmodhi4>
    1f10:	89 2b       	or	r24, r25
    1f12:	49 f4       	brne	.+18     	; 0x1f26 <_Z9onDateSethh+0xa2>
    1f14:	cf 01       	movw	r24, r30
    1f16:	60 e9       	ldi	r22, 0x90	; 144
    1f18:	71 e0       	ldi	r23, 0x01	; 1
    1f1a:	0e 94 e1 27 	call	0x4fc2	; 0x4fc2 <__udivmodhi4>
    1f1e:	21 e0       	ldi	r18, 0x01	; 1
    1f20:	89 2b       	or	r24, r25
    1f22:	09 f0       	breq	.+2      	; 0x1f26 <_Z9onDateSethh+0xa2>
    1f24:	20 e0       	ldi	r18, 0x00	; 0
    1f26:	e1 2f       	mov	r30, r17
    1f28:	f0 e0       	ldi	r31, 0x00	; 0
    1f2a:	e2 59       	subi	r30, 0x92	; 146
    1f2c:	ff 4f       	sbci	r31, 0xFF	; 255
    1f2e:	04 91       	lpm	r16, Z
    1f30:	12 30       	cpi	r17, 0x02	; 2
    1f32:	11 f4       	brne	.+4      	; 0x1f38 <_Z9onDateSethh+0xb4>
    1f34:	21 11       	cpse	r18, r1
    1f36:	0d e1       	ldi	r16, 0x1D	; 29
    1f38:	2a e0       	ldi	r18, 0x0A	; 10
    1f3a:	80 2f       	mov	r24, r16
    1f3c:	62 2f       	mov	r22, r18
    1f3e:	0e 94 c8 27 	call	0x4f90	; 0x4f90 <__udivmodqi4>
    1f42:	68 2f       	mov	r22, r24
    1f44:	19 2f       	mov	r17, r25
    1f46:	e1 10       	cpse	r14, r1
    1f48:	2d c0       	rjmp	.+90     	; 0x1fa4 <_Z9onDateSethh+0x120>
    1f4a:	8d 15       	cp	r24, r13
    1f4c:	20 f4       	brcc	.+8      	; 0x1f56 <_Z9onDateSethh+0xd2>
    1f4e:	60 e0       	ldi	r22, 0x00	; 0
    1f50:	84 e1       	ldi	r24, 0x14	; 20
    1f52:	60 dc       	rcall	.-1856   	; 0x1814 <_ZN6Config3setENS_2IDEh>
    1f54:	d1 2c       	mov	r13, r1
    1f56:	6a e0       	ldi	r22, 0x0A	; 10
    1f58:	9f 2d       	mov	r25, r15
    1f5a:	d6 9e       	mul	r13, r22
    1f5c:	90 0d       	add	r25, r0
    1f5e:	11 24       	eor	r1, r1
    1f60:	91 11       	cpse	r25, r1
    1f62:	17 c0       	rjmp	.+46     	; 0x1f92 <_Z9onDateSethh+0x10e>
    1f64:	61 e0       	ldi	r22, 0x01	; 1
    1f66:	1b c0       	rjmp	.+54     	; 0x1f9e <_Z9onDateSethh+0x11a>
    1f68:	1d 30       	cpi	r17, 0x0D	; 13
    1f6a:	08 f4       	brcc	.+2      	; 0x1f6e <_Z9onDateSethh+0xea>
    1f6c:	b9 cf       	rjmp	.-142    	; 0x1ee0 <_Z9onDateSethh+0x5c>
    1f6e:	82 e0       	ldi	r24, 0x02	; 2
    1f70:	68 13       	cpse	r22, r24
    1f72:	0c c0       	rjmp	.+24     	; 0x1f8c <_Z9onDateSethh+0x108>
    1f74:	62 e0       	ldi	r22, 0x02	; 2
    1f76:	87 e1       	ldi	r24, 0x17	; 23
    1f78:	4d dc       	rcall	.-1894   	; 0x1814 <_ZN6Config3setENS_2IDEh>
    1f7a:	80 91 2e 02 	lds	r24, 0x022E	; 0x80022e <_ZN6ConfigL7entriesE+0x11e>
    1f7e:	10 91 3b 02 	lds	r17, 0x023B	; 0x80023b <_ZN6ConfigL7entriesE+0x12b>
    1f82:	9a e0       	ldi	r25, 0x0A	; 10
    1f84:	89 9f       	mul	r24, r25
    1f86:	10 0d       	add	r17, r0
    1f88:	11 24       	eor	r1, r1
    1f8a:	aa cf       	rjmp	.-172    	; 0x1ee0 <_Z9onDateSethh+0x5c>
    1f8c:	61 e0       	ldi	r22, 0x01	; 1
    1f8e:	86 e1       	ldi	r24, 0x16	; 22
    1f90:	f3 cf       	rjmp	.-26     	; 0x1f78 <_Z9onDateSethh+0xf4>
    1f92:	09 17       	cp	r16, r25
    1f94:	b8 f4       	brcc	.+46     	; 0x1fc4 <_Z9onDateSethh+0x140>
    1f96:	80 2f       	mov	r24, r16
    1f98:	0e 94 c8 27 	call	0x4f90	; 0x4f90 <__udivmodqi4>
    1f9c:	69 2f       	mov	r22, r25
    1f9e:	85 e1       	ldi	r24, 0x15	; 21
    1fa0:	39 dc       	rcall	.-1934   	; 0x1814 <_ZN6Config3setENS_2IDEh>
    1fa2:	10 c0       	rjmp	.+32     	; 0x1fc4 <_Z9onDateSethh+0x140>
    1fa4:	9f 2d       	mov	r25, r15
    1fa6:	d2 9e       	mul	r13, r18
    1fa8:	90 0d       	add	r25, r0
    1faa:	11 24       	eor	r1, r1
    1fac:	f1 e0       	ldi	r31, 0x01	; 1
    1fae:	ef 12       	cpse	r14, r31
    1fb0:	17 c0       	rjmp	.+46     	; 0x1fe0 <_Z9onDateSethh+0x15c>
    1fb2:	91 11       	cpse	r25, r1
    1fb4:	04 c0       	rjmp	.+8      	; 0x1fbe <_Z9onDateSethh+0x13a>
    1fb6:	60 e0       	ldi	r22, 0x00	; 0
    1fb8:	84 e1       	ldi	r24, 0x14	; 20
    1fba:	2c dc       	rcall	.-1960   	; 0x1814 <_ZN6Config3setENS_2IDEh>
    1fbc:	d3 cf       	rjmp	.-90     	; 0x1f64 <_Z9onDateSethh+0xe0>
    1fbe:	84 e1       	ldi	r24, 0x14	; 20
    1fc0:	09 17       	cp	r16, r25
    1fc2:	70 f3       	brcs	.-36     	; 0x1fa0 <_Z9onDateSethh+0x11c>
    1fc4:	26 96       	adiw	r28, 0x06	; 6
    1fc6:	0f b6       	in	r0, 0x3f	; 63
    1fc8:	f8 94       	cli
    1fca:	de bf       	out	0x3e, r29	; 62
    1fcc:	0f be       	out	0x3f, r0	; 63
    1fce:	cd bf       	out	0x3d, r28	; 61
    1fd0:	df 91       	pop	r29
    1fd2:	cf 91       	pop	r28
    1fd4:	1f 91       	pop	r17
    1fd6:	0f 91       	pop	r16
    1fd8:	ff 90       	pop	r15
    1fda:	ef 90       	pop	r14
    1fdc:	df 90       	pop	r13
    1fde:	08 95       	ret
    1fe0:	99 23       	and	r25, r25
    1fe2:	09 f4       	brne	.+2      	; 0x1fe6 <_Z9onDateSethh+0x162>
    1fe4:	bf cf       	rjmp	.-130    	; 0x1f64 <_Z9onDateSethh+0xe0>
    1fe6:	09 17       	cp	r16, r25
    1fe8:	68 f7       	brcc	.-38     	; 0x1fc4 <_Z9onDateSethh+0x140>
    1fea:	84 e1       	ldi	r24, 0x14	; 20
    1fec:	13 dc       	rcall	.-2010   	; 0x1814 <_ZN6Config3setENS_2IDEh>
    1fee:	61 2f       	mov	r22, r17
    1ff0:	d6 cf       	rjmp	.-84     	; 0x1f9e <_Z9onDateSethh+0x11a>

00001ff2 <_Z10dateSaveFnhh>:
    1ff2:	cf 93       	push	r28
    1ff4:	df 93       	push	r29
    1ff6:	cd b7       	in	r28, 0x3d	; 61
    1ff8:	de b7       	in	r29, 0x3e	; 62
    1ffa:	2c 97       	sbiw	r28, 0x0c	; 12
    1ffc:	0f b6       	in	r0, 0x3f	; 63
    1ffe:	f8 94       	cli
    2000:	de bf       	out	0x3e, r29	; 62
    2002:	0f be       	out	0x3f, r0	; 63
    2004:	cd bf       	out	0x3d, r28	; 61
    2006:	61 11       	cpse	r22, r1
    2008:	26 c0       	rjmp	.+76     	; 0x2056 <_Z10dateSaveFnhh+0x64>
    200a:	ce 01       	movw	r24, r28
    200c:	01 96       	adiw	r24, 0x01	; 1
    200e:	26 e0       	ldi	r18, 0x06	; 6
    2010:	fc 01       	movw	r30, r24
    2012:	11 92       	st	Z+, r1
    2014:	2a 95       	dec	r18
    2016:	e9 f7       	brne	.-6      	; 0x2012 <_Z10dateSaveFnhh+0x20>
    2018:	e9 de       	rcall	.-558    	; 0x1dec <_ZN7Modules6DS32313nowERNS0_8DateTimeE>
    201a:	88 23       	and	r24, r24
    201c:	e1 f0       	breq	.+56     	; 0x2056 <_Z10dateSaveFnhh+0x64>
    201e:	89 81       	ldd	r24, Y+1	; 0x01
    2020:	8f 83       	std	Y+7, r24	; 0x07
    2022:	8a 81       	ldd	r24, Y+2	; 0x02
    2024:	88 87       	std	Y+8, r24	; 0x08
    2026:	20 91 14 02 	lds	r18, 0x0214	; 0x800214 <_ZN6ConfigL7entriesE+0x104>
    202a:	9a e0       	ldi	r25, 0x0A	; 10
    202c:	80 91 21 02 	lds	r24, 0x0221	; 0x800221 <_ZN6ConfigL7entriesE+0x111>
    2030:	29 9f       	mul	r18, r25
    2032:	80 0d       	add	r24, r0
    2034:	11 24       	eor	r1, r1
    2036:	89 87       	std	Y+9, r24	; 0x09
    2038:	20 91 2e 02 	lds	r18, 0x022E	; 0x80022e <_ZN6ConfigL7entriesE+0x11e>
    203c:	80 91 3b 02 	lds	r24, 0x023B	; 0x80023b <_ZN6ConfigL7entriesE+0x12b>
    2040:	29 9f       	mul	r18, r25
    2042:	80 0d       	add	r24, r0
    2044:	11 24       	eor	r1, r1
    2046:	8a 87       	std	Y+10, r24	; 0x0a
    2048:	8d 81       	ldd	r24, Y+5	; 0x05
    204a:	9e 81       	ldd	r25, Y+6	; 0x06
    204c:	9c 87       	std	Y+12, r25	; 0x0c
    204e:	8b 87       	std	Y+11, r24	; 0x0b
    2050:	ce 01       	movw	r24, r28
    2052:	07 96       	adiw	r24, 0x07	; 7
    2054:	01 de       	rcall	.-1022   	; 0x1c58 <_ZN7Modules6DS32316adjustERKNS0_8DateTimeE>
    2056:	2c 96       	adiw	r28, 0x0c	; 12
    2058:	0f b6       	in	r0, 0x3f	; 63
    205a:	f8 94       	cli
    205c:	de bf       	out	0x3e, r29	; 62
    205e:	0f be       	out	0x3f, r0	; 63
    2060:	cd bf       	out	0x3d, r28	; 61
    2062:	df 91       	pop	r29
    2064:	cf 91       	pop	r28
    2066:	08 95       	ret

00002068 <_Z10yearLoadFnhh>:
    2068:	cf 92       	push	r12
    206a:	df 92       	push	r13
    206c:	ef 92       	push	r14
    206e:	ff 92       	push	r15
    2070:	1f 93       	push	r17
    2072:	cf 93       	push	r28
    2074:	df 93       	push	r29
    2076:	00 d0       	rcall	.+0      	; 0x2078 <_Z10yearLoadFnhh+0x10>
    2078:	00 d0       	rcall	.+0      	; 0x207a <_Z10yearLoadFnhh+0x12>
    207a:	00 d0       	rcall	.+0      	; 0x207c <_Z10yearLoadFnhh+0x14>
    207c:	cd b7       	in	r28, 0x3d	; 61
    207e:	de b7       	in	r29, 0x3e	; 62
    2080:	61 11       	cpse	r22, r1
    2082:	3c c0       	rjmp	.+120    	; 0x20fc <_Z10yearLoadFnhh+0x94>
    2084:	18 2f       	mov	r17, r24
    2086:	ce 01       	movw	r24, r28
    2088:	01 96       	adiw	r24, 0x01	; 1
    208a:	26 e0       	ldi	r18, 0x06	; 6
    208c:	fc 01       	movw	r30, r24
    208e:	11 92       	st	Z+, r1
    2090:	2a 95       	dec	r18
    2092:	e9 f7       	brne	.-6      	; 0x208e <_Z10yearLoadFnhh+0x26>
    2094:	ab de       	rcall	.-682    	; 0x1dec <_ZN7Modules6DS32313nowERNS0_8DateTimeE>
    2096:	88 23       	and	r24, r24
    2098:	89 f1       	breq	.+98     	; 0x20fc <_Z10yearLoadFnhh+0x94>
    209a:	cd 80       	ldd	r12, Y+5	; 0x05
    209c:	de 80       	ldd	r13, Y+6	; 0x06
    209e:	11 0f       	add	r17, r17
    20a0:	11 0f       	add	r17, r17
    20a2:	c6 01       	movw	r24, r12
    20a4:	68 ee       	ldi	r22, 0xE8	; 232
    20a6:	73 e0       	ldi	r23, 0x03	; 3
    20a8:	0e 94 e1 27 	call	0x4fc2	; 0x4fc2 <__udivmodhi4>
    20ac:	cb 01       	movw	r24, r22
    20ae:	2a e0       	ldi	r18, 0x0A	; 10
    20b0:	e2 2e       	mov	r14, r18
    20b2:	f1 2c       	mov	r15, r1
    20b4:	b7 01       	movw	r22, r14
    20b6:	0e 94 e1 27 	call	0x4fc2	; 0x4fc2 <__udivmodhi4>
    20ba:	68 2f       	mov	r22, r24
    20bc:	81 2f       	mov	r24, r17
    20be:	aa db       	rcall	.-2220   	; 0x1814 <_ZN6Config3setENS_2IDEh>
    20c0:	c6 01       	movw	r24, r12
    20c2:	64 e6       	ldi	r22, 0x64	; 100
    20c4:	70 e0       	ldi	r23, 0x00	; 0
    20c6:	0e 94 e1 27 	call	0x4fc2	; 0x4fc2 <__udivmodhi4>
    20ca:	cb 01       	movw	r24, r22
    20cc:	b7 01       	movw	r22, r14
    20ce:	0e 94 e1 27 	call	0x4fc2	; 0x4fc2 <__udivmodhi4>
    20d2:	68 2f       	mov	r22, r24
    20d4:	81 e0       	ldi	r24, 0x01	; 1
    20d6:	81 0f       	add	r24, r17
    20d8:	9d db       	rcall	.-2246   	; 0x1814 <_ZN6Config3setENS_2IDEh>
    20da:	c6 01       	movw	r24, r12
    20dc:	b7 01       	movw	r22, r14
    20de:	0e 94 e1 27 	call	0x4fc2	; 0x4fc2 <__udivmodhi4>
    20e2:	d8 2e       	mov	r13, r24
    20e4:	cb 01       	movw	r24, r22
    20e6:	b7 01       	movw	r22, r14
    20e8:	0e 94 e1 27 	call	0x4fc2	; 0x4fc2 <__udivmodhi4>
    20ec:	68 2f       	mov	r22, r24
    20ee:	82 e0       	ldi	r24, 0x02	; 2
    20f0:	81 0f       	add	r24, r17
    20f2:	90 db       	rcall	.-2272   	; 0x1814 <_ZN6Config3setENS_2IDEh>
    20f4:	6d 2d       	mov	r22, r13
    20f6:	83 e0       	ldi	r24, 0x03	; 3
    20f8:	81 0f       	add	r24, r17
    20fa:	8c db       	rcall	.-2280   	; 0x1814 <_ZN6Config3setENS_2IDEh>
    20fc:	26 96       	adiw	r28, 0x06	; 6
    20fe:	0f b6       	in	r0, 0x3f	; 63
    2100:	f8 94       	cli
    2102:	de bf       	out	0x3e, r29	; 62
    2104:	0f be       	out	0x3f, r0	; 63
    2106:	cd bf       	out	0x3d, r28	; 61
    2108:	df 91       	pop	r29
    210a:	cf 91       	pop	r28
    210c:	1f 91       	pop	r17
    210e:	ff 90       	pop	r15
    2110:	ef 90       	pop	r14
    2112:	df 90       	pop	r13
    2114:	cf 90       	pop	r12
    2116:	08 95       	ret

00002118 <_Z10yearSaveFnhh>:
    2118:	cf 93       	push	r28
    211a:	df 93       	push	r29
    211c:	cd b7       	in	r28, 0x3d	; 61
    211e:	de b7       	in	r29, 0x3e	; 62
    2120:	2c 97       	sbiw	r28, 0x0c	; 12
    2122:	0f b6       	in	r0, 0x3f	; 63
    2124:	f8 94       	cli
    2126:	de bf       	out	0x3e, r29	; 62
    2128:	0f be       	out	0x3f, r0	; 63
    212a:	cd bf       	out	0x3d, r28	; 61
    212c:	61 11       	cpse	r22, r1
    212e:	32 c0       	rjmp	.+100    	; 0x2194 <_Z10yearSaveFnhh+0x7c>
    2130:	ce 01       	movw	r24, r28
    2132:	01 96       	adiw	r24, 0x01	; 1
    2134:	26 e0       	ldi	r18, 0x06	; 6
    2136:	fc 01       	movw	r30, r24
    2138:	11 92       	st	Z+, r1
    213a:	2a 95       	dec	r18
    213c:	e9 f7       	brne	.-6      	; 0x2138 <_Z10yearSaveFnhh+0x20>
    213e:	56 de       	rcall	.-852    	; 0x1dec <_ZN7Modules6DS32313nowERNS0_8DateTimeE>
    2140:	88 23       	and	r24, r24
    2142:	41 f1       	breq	.+80     	; 0x2194 <_Z10yearSaveFnhh+0x7c>
    2144:	40 91 e0 01 	lds	r20, 0x01E0	; 0x8001e0 <_ZN6ConfigL7entriesE+0xd0>
    2148:	28 ee       	ldi	r18, 0xE8	; 232
    214a:	33 e0       	ldi	r19, 0x03	; 3
    214c:	42 9f       	mul	r20, r18
    214e:	c0 01       	movw	r24, r0
    2150:	43 9f       	mul	r20, r19
    2152:	90 0d       	add	r25, r0
    2154:	11 24       	eor	r1, r1
    2156:	20 91 ed 01 	lds	r18, 0x01ED	; 0x8001ed <_ZN6ConfigL7entriesE+0xdd>
    215a:	f4 e6       	ldi	r31, 0x64	; 100
    215c:	2f 9f       	mul	r18, r31
    215e:	80 0d       	add	r24, r0
    2160:	91 1d       	adc	r25, r1
    2162:	11 24       	eor	r1, r1
    2164:	20 91 fa 01 	lds	r18, 0x01FA	; 0x8001fa <_ZN6ConfigL7entriesE+0xea>
    2168:	3a e0       	ldi	r19, 0x0A	; 10
    216a:	23 9f       	mul	r18, r19
    216c:	80 0d       	add	r24, r0
    216e:	91 1d       	adc	r25, r1
    2170:	11 24       	eor	r1, r1
    2172:	20 91 07 02 	lds	r18, 0x0207	; 0x800207 <_ZN6ConfigL7entriesE+0xf7>
    2176:	82 0f       	add	r24, r18
    2178:	91 1d       	adc	r25, r1
    217a:	29 81       	ldd	r18, Y+1	; 0x01
    217c:	2f 83       	std	Y+7, r18	; 0x07
    217e:	2a 81       	ldd	r18, Y+2	; 0x02
    2180:	28 87       	std	Y+8, r18	; 0x08
    2182:	2b 81       	ldd	r18, Y+3	; 0x03
    2184:	29 87       	std	Y+9, r18	; 0x09
    2186:	2c 81       	ldd	r18, Y+4	; 0x04
    2188:	2a 87       	std	Y+10, r18	; 0x0a
    218a:	9c 87       	std	Y+12, r25	; 0x0c
    218c:	8b 87       	std	Y+11, r24	; 0x0b
    218e:	ce 01       	movw	r24, r28
    2190:	07 96       	adiw	r24, 0x07	; 7
    2192:	62 dd       	rcall	.-1340   	; 0x1c58 <_ZN7Modules6DS32316adjustERKNS0_8DateTimeE>
    2194:	2c 96       	adiw	r28, 0x0c	; 12
    2196:	0f b6       	in	r0, 0x3f	; 63
    2198:	f8 94       	cli
    219a:	de bf       	out	0x3e, r29	; 62
    219c:	0f be       	out	0x3f, r0	; 63
    219e:	cd bf       	out	0x3d, r28	; 61
    21a0:	df 91       	pop	r29
    21a2:	cf 91       	pop	r28
    21a4:	08 95       	ret

000021a6 <_Z10dateLoadFnhh>:
    21a6:	ef 92       	push	r14
    21a8:	ff 92       	push	r15
    21aa:	0f 93       	push	r16
    21ac:	1f 93       	push	r17
    21ae:	cf 93       	push	r28
    21b0:	df 93       	push	r29
    21b2:	00 d0       	rcall	.+0      	; 0x21b4 <_Z10dateLoadFnhh+0xe>
    21b4:	00 d0       	rcall	.+0      	; 0x21b6 <_Z10dateLoadFnhh+0x10>
    21b6:	00 d0       	rcall	.+0      	; 0x21b8 <_Z10dateLoadFnhh+0x12>
    21b8:	cd b7       	in	r28, 0x3d	; 61
    21ba:	de b7       	in	r29, 0x3e	; 62
    21bc:	61 11       	cpse	r22, r1
    21be:	28 c0       	rjmp	.+80     	; 0x2210 <_Z10dateLoadFnhh+0x6a>
    21c0:	18 2f       	mov	r17, r24
    21c2:	ce 01       	movw	r24, r28
    21c4:	01 96       	adiw	r24, 0x01	; 1
    21c6:	26 e0       	ldi	r18, 0x06	; 6
    21c8:	fc 01       	movw	r30, r24
    21ca:	11 92       	st	Z+, r1
    21cc:	2a 95       	dec	r18
    21ce:	e9 f7       	brne	.-6      	; 0x21ca <_Z10dateLoadFnhh+0x24>
    21d0:	0d de       	rcall	.-998    	; 0x1dec <_ZN7Modules6DS32313nowERNS0_8DateTimeE>
    21d2:	88 23       	and	r24, r24
    21d4:	51 f1       	breq	.+84     	; 0x222a <_Z10dateLoadFnhh+0x84>
    21d6:	fc 80       	ldd	r15, Y+4	; 0x04
    21d8:	8b 81       	ldd	r24, Y+3	; 0x03
    21da:	11 0f       	add	r17, r17
    21dc:	11 0f       	add	r17, r17
    21de:	0a e0       	ldi	r16, 0x0A	; 10
    21e0:	60 2f       	mov	r22, r16
    21e2:	0e 94 c8 27 	call	0x4f90	; 0x4f90 <__udivmodqi4>
    21e6:	e9 2e       	mov	r14, r25
    21e8:	68 2f       	mov	r22, r24
    21ea:	81 2f       	mov	r24, r17
    21ec:	13 db       	rcall	.-2522   	; 0x1814 <_ZN6Config3setENS_2IDEh>
    21ee:	6e 2d       	mov	r22, r14
    21f0:	81 e0       	ldi	r24, 0x01	; 1
    21f2:	81 0f       	add	r24, r17
    21f4:	0f db       	rcall	.-2530   	; 0x1814 <_ZN6Config3setENS_2IDEh>
    21f6:	8f 2d       	mov	r24, r15
    21f8:	60 2f       	mov	r22, r16
    21fa:	0e 94 c8 27 	call	0x4f90	; 0x4f90 <__udivmodqi4>
    21fe:	09 2f       	mov	r16, r25
    2200:	68 2f       	mov	r22, r24
    2202:	82 e0       	ldi	r24, 0x02	; 2
    2204:	81 0f       	add	r24, r17
    2206:	06 db       	rcall	.-2548   	; 0x1814 <_ZN6Config3setENS_2IDEh>
    2208:	60 2f       	mov	r22, r16
    220a:	83 e0       	ldi	r24, 0x03	; 3
    220c:	81 0f       	add	r24, r17
    220e:	02 db       	rcall	.-2556   	; 0x1814 <_ZN6Config3setENS_2IDEh>
    2210:	26 96       	adiw	r28, 0x06	; 6
    2212:	0f b6       	in	r0, 0x3f	; 63
    2214:	f8 94       	cli
    2216:	de bf       	out	0x3e, r29	; 62
    2218:	0f be       	out	0x3f, r0	; 63
    221a:	cd bf       	out	0x3d, r28	; 61
    221c:	df 91       	pop	r29
    221e:	cf 91       	pop	r28
    2220:	1f 91       	pop	r17
    2222:	0f 91       	pop	r16
    2224:	ff 90       	pop	r15
    2226:	ef 90       	pop	r14
    2228:	08 95       	ret
    222a:	81 e0       	ldi	r24, 0x01	; 1
    222c:	ff 24       	eor	r15, r15
    222e:	f3 94       	inc	r15
    2230:	d4 cf       	rjmp	.-88     	; 0x21da <_Z10dateLoadFnhh+0x34>

00002232 <_Z10timeSaveFnhh>:
    2232:	0f 93       	push	r16
    2234:	1f 93       	push	r17
    2236:	cf 93       	push	r28
    2238:	df 93       	push	r29
    223a:	00 d0       	rcall	.+0      	; 0x223c <_Z10timeSaveFnhh+0xa>
    223c:	00 d0       	rcall	.+0      	; 0x223e <_Z10timeSaveFnhh+0xc>
    223e:	00 d0       	rcall	.+0      	; 0x2240 <_Z10timeSaveFnhh+0xe>
    2240:	cd b7       	in	r28, 0x3d	; 61
    2242:	de b7       	in	r29, 0x3e	; 62
    2244:	61 11       	cpse	r22, r1
    2246:	4b c0       	rjmp	.+150    	; 0x22de <_Z10timeSaveFnhh+0xac>
    2248:	e8 2f       	mov	r30, r24
    224a:	ee 0f       	add	r30, r30
    224c:	ee 0f       	add	r30, r30
    224e:	9d e0       	ldi	r25, 0x0D	; 13
    2250:	9e 9f       	mul	r25, r30
    2252:	d0 01       	movw	r26, r0
    2254:	11 24       	eor	r1, r1
    2256:	a0 5f       	subi	r26, 0xF0	; 240
    2258:	be 4f       	sbci	r27, 0xFE	; 254
    225a:	3c 91       	ld	r19, X
    225c:	2a e0       	ldi	r18, 0x0A	; 10
    225e:	a1 e0       	ldi	r26, 0x01	; 1
    2260:	ae 0f       	add	r26, r30
    2262:	9a 9f       	mul	r25, r26
    2264:	d0 01       	movw	r26, r0
    2266:	11 24       	eor	r1, r1
    2268:	a0 5f       	subi	r26, 0xF0	; 240
    226a:	be 4f       	sbci	r27, 0xFE	; 254
    226c:	8c 91       	ld	r24, X
    226e:	32 9f       	mul	r19, r18
    2270:	80 0d       	add	r24, r0
    2272:	11 24       	eor	r1, r1
    2274:	80 93 4c 03 	sts	0x034C, r24	; 0x80034c <t_counter_hours>
    2278:	a2 e0       	ldi	r26, 0x02	; 2
    227a:	ae 0f       	add	r26, r30
    227c:	9a 9f       	mul	r25, r26
    227e:	d0 01       	movw	r26, r0
    2280:	11 24       	eor	r1, r1
    2282:	a0 5f       	subi	r26, 0xF0	; 240
    2284:	be 4f       	sbci	r27, 0xFE	; 254
    2286:	3c 91       	ld	r19, X
    2288:	ed 5f       	subi	r30, 0xFD	; 253
    228a:	9e 9f       	mul	r25, r30
    228c:	f0 01       	movw	r30, r0
    228e:	11 24       	eor	r1, r1
    2290:	e0 5f       	subi	r30, 0xF0	; 240
    2292:	fe 4f       	sbci	r31, 0xFE	; 254
    2294:	80 81       	ld	r24, Z
    2296:	32 9f       	mul	r19, r18
    2298:	80 0d       	add	r24, r0
    229a:	11 24       	eor	r1, r1
    229c:	80 93 4d 03 	sts	0x034D, r24	; 0x80034d <t_counter_minutes>
    22a0:	80 91 52 03 	lds	r24, 0x0352	; 0x800352 <_ZN7ModulesL8_MODULESE>
    22a4:	80 ff       	sbrs	r24, 0
    22a6:	1b c0       	rjmp	.+54     	; 0x22de <_Z10timeSaveFnhh+0xac>
    22a8:	8e 01       	movw	r16, r28
    22aa:	0f 5f       	subi	r16, 0xFF	; 255
    22ac:	1f 4f       	sbci	r17, 0xFF	; 255
    22ae:	86 e0       	ldi	r24, 0x06	; 6
    22b0:	f8 01       	movw	r30, r16
    22b2:	11 92       	st	Z+, r1
    22b4:	8a 95       	dec	r24
    22b6:	e9 f7       	brne	.-6      	; 0x22b2 <_Z10timeSaveFnhh+0x80>
    22b8:	c8 01       	movw	r24, r16
    22ba:	98 dd       	rcall	.-1232   	; 0x1dec <_ZN7Modules6DS32313nowERNS0_8DateTimeE>
    22bc:	81 11       	cpse	r24, r1
    22be:	07 c0       	rjmp	.+14     	; 0x22ce <_Z10timeSaveFnhh+0x9c>
    22c0:	81 e0       	ldi	r24, 0x01	; 1
    22c2:	8b 83       	std	Y+3, r24	; 0x03
    22c4:	8c 83       	std	Y+4, r24	; 0x04
    22c6:	80 ed       	ldi	r24, 0xD0	; 208
    22c8:	97 e0       	ldi	r25, 0x07	; 7
    22ca:	9e 83       	std	Y+6, r25	; 0x06
    22cc:	8d 83       	std	Y+5, r24	; 0x05
    22ce:	80 91 4d 03 	lds	r24, 0x034D	; 0x80034d <t_counter_minutes>
    22d2:	89 83       	std	Y+1, r24	; 0x01
    22d4:	80 91 4c 03 	lds	r24, 0x034C	; 0x80034c <t_counter_hours>
    22d8:	8a 83       	std	Y+2, r24	; 0x02
    22da:	c8 01       	movw	r24, r16
    22dc:	bd dc       	rcall	.-1670   	; 0x1c58 <_ZN7Modules6DS32316adjustERKNS0_8DateTimeE>
    22de:	26 96       	adiw	r28, 0x06	; 6
    22e0:	0f b6       	in	r0, 0x3f	; 63
    22e2:	f8 94       	cli
    22e4:	de bf       	out	0x3e, r29	; 62
    22e6:	0f be       	out	0x3f, r0	; 63
    22e8:	cd bf       	out	0x3d, r28	; 61
    22ea:	df 91       	pop	r29
    22ec:	cf 91       	pop	r28
    22ee:	1f 91       	pop	r17
    22f0:	0f 91       	pop	r16
    22f2:	08 95       	ret

000022f4 <_Z11displayDatev>:
    22f4:	ff 92       	push	r15
    22f6:	0f 93       	push	r16
    22f8:	1f 93       	push	r17
    22fa:	cf 93       	push	r28
    22fc:	df 93       	push	r29
    22fe:	cd b7       	in	r28, 0x3d	; 61
    2300:	de b7       	in	r29, 0x3e	; 62
    2302:	62 97       	sbiw	r28, 0x12	; 18
    2304:	0f b6       	in	r0, 0x3f	; 63
    2306:	f8 94       	cli
    2308:	de bf       	out	0x3e, r29	; 62
    230a:	0f be       	out	0x3f, r0	; 63
    230c:	cd bf       	out	0x3d, r28	; 61
    230e:	42 e0       	ldi	r20, 0x02	; 2
    2310:	be 01       	movw	r22, r28
    2312:	6f 5f       	subi	r22, 0xFF	; 255
    2314:	7f 4f       	sbci	r23, 0xFF	; 255
    2316:	84 e0       	ldi	r24, 0x04	; 4
    2318:	24 dd       	rcall	.-1464   	; 0x1d62 <_ZN7Modules6DS3231L13readRegistersEhPhh>
    231a:	88 23       	and	r24, r24
    231c:	91 f0       	breq	.+36     	; 0x2342 <_Z11displayDatev+0x4e>
    231e:	89 81       	ldd	r24, Y+1	; 0x01
    2320:	8f 73       	andi	r24, 0x3F	; 63
    2322:	0e 94 21 03 	call	0x642	; 0x642 <_ZN7Modules6DS3231L8bcdToDecEh>
    2326:	08 2f       	mov	r16, r24
    2328:	8a 81       	ldd	r24, Y+2	; 0x02
    232a:	8f 71       	andi	r24, 0x1F	; 31
    232c:	0e 94 21 03 	call	0x642	; 0x642 <_ZN7Modules6DS3231L8bcdToDecEh>
    2330:	18 2f       	mov	r17, r24
    2332:	8f ef       	ldi	r24, 0xFF	; 255
    2334:	80 0f       	add	r24, r16
    2336:	8f 31       	cpi	r24, 0x1F	; 31
    2338:	20 f4       	brcc	.+8      	; 0x2342 <_Z11displayDatev+0x4e>
    233a:	8f ef       	ldi	r24, 0xFF	; 255
    233c:	81 0f       	add	r24, r17
    233e:	8c 30       	cpi	r24, 0x0C	; 12
    2340:	50 f1       	brcs	.+84     	; 0x2396 <_Z11displayDatev+0xa2>
    2342:	80 91 63 03 	lds	r24, 0x0363	; 0x800363 <_ZN8Internal22DCF77_Clock_ControllerI13ConfigurationNS_23DCF77_Frequency_ControlEE11Local_ClockE+0xa>
    2346:	90 91 63 03 	lds	r25, 0x0363	; 0x800363 <_ZN8Internal22DCF77_Clock_ControllerI13ConfigurationNS_23DCF77_Frequency_ControlEE11Local_ClockE+0xa>
    234a:	89 17       	cp	r24, r25
    234c:	e1 f3       	breq	.-8      	; 0x2346 <_Z11displayDatev+0x52>
    234e:	9f b7       	in	r25, 0x3f	; 63
    2350:	f8 94       	cli
    2352:	88 e0       	ldi	r24, 0x08	; 8
    2354:	eb e5       	ldi	r30, 0x5B	; 91
    2356:	f3 e0       	ldi	r31, 0x03	; 3
    2358:	de 01       	movw	r26, r28
    235a:	1b 96       	adiw	r26, 0x0b	; 11
    235c:	01 90       	ld	r0, Z+
    235e:	0d 92       	st	X+, r0
    2360:	8a 95       	dec	r24
    2362:	e1 f7       	brne	.-8      	; 0x235c <_Z11displayDatev+0x68>
    2364:	80 91 61 03 	lds	r24, 0x0361	; 0x800361 <_ZN8Internal22DCF77_Clock_ControllerI13ConfigurationNS_23DCF77_Frequency_ControlEE11Local_ClockE+0x8>
    2368:	9f bf       	out	0x3f, r25	; 63
    236a:	0e 94 f7 05 	call	0xbee	; 0xbee <_ZN3BCD10int_to_bcdEh>
    236e:	8f 83       	std	Y+7, r24	; 0x07
    2370:	0d 85       	ldd	r16, Y+13	; 0x0d
    2372:	0b 83       	std	Y+3, r16	; 0x03
    2374:	1c 85       	ldd	r17, Y+12	; 0x0c
    2376:	1a 83       	std	Y+2, r17	; 0x02
    2378:	90 2f       	mov	r25, r16
    237a:	92 95       	swap	r25
    237c:	9f 70       	andi	r25, 0x0F	; 15
    237e:	8a e0       	ldi	r24, 0x0A	; 10
    2380:	0f 70       	andi	r16, 0x0F	; 15
    2382:	98 9f       	mul	r25, r24
    2384:	00 0d       	add	r16, r0
    2386:	11 24       	eor	r1, r1
    2388:	91 2f       	mov	r25, r17
    238a:	92 95       	swap	r25
    238c:	9f 70       	andi	r25, 0x0F	; 15
    238e:	1f 70       	andi	r17, 0x0F	; 15
    2390:	98 9f       	mul	r25, r24
    2392:	10 0d       	add	r17, r0
    2394:	11 24       	eor	r1, r1
    2396:	8a e0       	ldi	r24, 0x0A	; 10
    2398:	f8 2e       	mov	r15, r24
    239a:	80 2f       	mov	r24, r16
    239c:	6f 2d       	mov	r22, r15
    239e:	0e 94 c8 27 	call	0x4f90	; 0x4f90 <__udivmodqi4>
    23a2:	09 2f       	mov	r16, r25
    23a4:	68 2f       	mov	r22, r24
    23a6:	80 e0       	ldi	r24, 0x00	; 0
    23a8:	5c d9       	rcall	.-3400   	; 0x1662 <_ZN7Display19setSymbolOnNumitronEhh>
    23aa:	60 2f       	mov	r22, r16
    23ac:	81 e0       	ldi	r24, 0x01	; 1
    23ae:	59 d9       	rcall	.-3406   	; 0x1662 <_ZN7Display19setSymbolOnNumitronEhh>
    23b0:	81 2f       	mov	r24, r17
    23b2:	6f 2d       	mov	r22, r15
    23b4:	0e 94 c8 27 	call	0x4f90	; 0x4f90 <__udivmodqi4>
    23b8:	19 2f       	mov	r17, r25
    23ba:	68 2f       	mov	r22, r24
    23bc:	82 e0       	ldi	r24, 0x02	; 2
    23be:	51 d9       	rcall	.-3422   	; 0x1662 <_ZN7Display19setSymbolOnNumitronEhh>
    23c0:	61 2f       	mov	r22, r17
    23c2:	83 e0       	ldi	r24, 0x03	; 3
    23c4:	4e d9       	rcall	.-3428   	; 0x1662 <_ZN7Display19setSymbolOnNumitronEhh>
    23c6:	ae d8       	rcall	.-3748   	; 0x1524 <_ZN7Display11Crossfading12transitionToEPKh.constprop.91>
    23c8:	62 96       	adiw	r28, 0x12	; 18
    23ca:	0f b6       	in	r0, 0x3f	; 63
    23cc:	f8 94       	cli
    23ce:	de bf       	out	0x3e, r29	; 62
    23d0:	0f be       	out	0x3f, r0	; 63
    23d2:	cd bf       	out	0x3d, r28	; 61
    23d4:	df 91       	pop	r29
    23d6:	cf 91       	pop	r28
    23d8:	1f 91       	pop	r17
    23da:	0f 91       	pop	r16
    23dc:	ff 90       	pop	r15
    23de:	08 95       	ret

000023e0 <_Z18displayTemperaturev>:
    23e0:	0f 93       	push	r16
    23e2:	1f 93       	push	r17
    23e4:	cf 93       	push	r28
    23e6:	df 93       	push	r29
    23e8:	00 d0       	rcall	.+0      	; 0x23ea <_Z18displayTemperaturev+0xa>
    23ea:	cd b7       	in	r28, 0x3d	; 61
    23ec:	de b7       	in	r29, 0x3e	; 62
    23ee:	42 e0       	ldi	r20, 0x02	; 2
    23f0:	be 01       	movw	r22, r28
    23f2:	6f 5f       	subi	r22, 0xFF	; 255
    23f4:	7f 4f       	sbci	r23, 0xFF	; 255
    23f6:	81 e1       	ldi	r24, 0x11	; 17
    23f8:	b4 dc       	rcall	.-1688   	; 0x1d62 <_ZN7Modules6DS3231L13readRegistersEhPhh>
    23fa:	81 11       	cpse	r24, r1
    23fc:	2c c0       	rjmp	.+88     	; 0x2456 <_Z18displayTemperaturev+0x76>
    23fe:	00 91 7c 00 	lds	r16, 0x007C	; 0x80007c <__TEXT_REGION_LENGTH__+0x7e007c>
    2402:	10 91 7a 00 	lds	r17, 0x007A	; 0x80007a <__TEXT_REGION_LENGTH__+0x7e007a>
    2406:	88 ec       	ldi	r24, 0xC8	; 200
    2408:	80 93 7c 00 	sts	0x007C, r24	; 0x80007c <__TEXT_REGION_LENGTH__+0x7e007c>
    240c:	87 e8       	ldi	r24, 0x87	; 135
    240e:	80 93 7a 00 	sts	0x007A, r24	; 0x80007a <__TEXT_REGION_LENGTH__+0x7e007a>
    2412:	84 e1       	ldi	r24, 0x14	; 20
    2414:	90 e0       	ldi	r25, 0x00	; 0
    2416:	60 d8       	rcall	.-3904   	; 0x14d8 <_Z4waitj>
    2418:	80 91 7a 00 	lds	r24, 0x007A	; 0x80007a <__TEXT_REGION_LENGTH__+0x7e007a>
    241c:	80 64       	ori	r24, 0x40	; 64
    241e:	80 93 7a 00 	sts	0x007A, r24	; 0x80007a <__TEXT_REGION_LENGTH__+0x7e007a>
    2422:	80 91 7a 00 	lds	r24, 0x007A	; 0x80007a <__TEXT_REGION_LENGTH__+0x7e007a>
    2426:	86 fd       	sbrc	r24, 6
    2428:	fc cf       	rjmp	.-8      	; 0x2422 <_Z18displayTemperaturev+0x42>
    242a:	20 91 78 00 	lds	r18, 0x0078	; 0x800078 <__TEXT_REGION_LENGTH__+0x7e0078>
    242e:	30 91 79 00 	lds	r19, 0x0079	; 0x800079 <__TEXT_REGION_LENGTH__+0x7e0079>
    2432:	00 93 7c 00 	sts	0x007C, r16	; 0x80007c <__TEXT_REGION_LENGTH__+0x7e007c>
    2436:	10 93 7a 00 	sts	0x007A, r17	; 0x80007a <__TEXT_REGION_LENGTH__+0x7e007a>
    243a:	2c 52       	subi	r18, 0x2C	; 44
    243c:	31 40       	sbci	r19, 0x01	; 1
    243e:	ab e2       	ldi	r26, 0x2B	; 43
    2440:	b4 e2       	ldi	r27, 0x24	; 36
    2442:	0e 94 2a 28 	call	0x5054	; 0x5054 <__umulhisi3>
    2446:	20 e1       	ldi	r18, 0x10	; 16
    2448:	37 e2       	ldi	r19, 0x27	; 39
    244a:	40 e0       	ldi	r20, 0x00	; 0
    244c:	50 e0       	ldi	r21, 0x00	; 0
    244e:	0e 94 08 28 	call	0x5010	; 0x5010 <__divmodsi4>
    2452:	12 2f       	mov	r17, r18
    2454:	08 c0       	rjmp	.+16     	; 0x2466 <_Z18displayTemperaturev+0x86>
    2456:	19 81       	ldd	r17, Y+1	; 0x01
    2458:	8a 81       	ldd	r24, Y+2	; 0x02
    245a:	20 e0       	ldi	r18, 0x00	; 0
    245c:	87 ff       	sbrs	r24, 7
    245e:	2a c0       	rjmp	.+84     	; 0x24b4 <_Z18displayTemperaturev+0xd4>
    2460:	21 e0       	ldi	r18, 0x01	; 1
    2462:	1f 37       	cpi	r17, 0x7F	; 127
    2464:	39 f5       	brne	.+78     	; 0x24b4 <_Z18displayTemperaturev+0xd4>
    2466:	81 2f       	mov	r24, r17
    2468:	6a e0       	ldi	r22, 0x0A	; 10
    246a:	0e 94 d4 27 	call	0x4fa8	; 0x4fa8 <__divmodqi4>
    246e:	09 2f       	mov	r16, r25
    2470:	68 2f       	mov	r22, r24
    2472:	80 e0       	ldi	r24, 0x00	; 0
    2474:	f6 d8       	rcall	.-3604   	; 0x1662 <_ZN7Display19setSymbolOnNumitronEhh>
    2476:	17 ff       	sbrs	r17, 7
    2478:	08 c0       	rjmp	.+16     	; 0x248a <_Z18displayTemperaturev+0xaa>
    247a:	ea e8       	ldi	r30, 0x8A	; 138
    247c:	f0 e0       	ldi	r31, 0x00	; 0
    247e:	e4 91       	lpm	r30, Z
    2480:	e0 93 a0 04 	sts	0x04A0, r30	; 0x8004a0 <_ZN7Display6DIGITSE>
    2484:	17 3f       	cpi	r17, 0xF7	; 247
    2486:	0c f4       	brge	.+2      	; 0x248a <_Z18displayTemperaturev+0xaa>
    2488:	07 ef       	ldi	r16, 0xF7	; 247
    248a:	60 2f       	mov	r22, r16
    248c:	81 e0       	ldi	r24, 0x01	; 1
    248e:	e9 d8       	rcall	.-3630   	; 0x1662 <_ZN7Display19setSymbolOnNumitronEhh>
    2490:	e9 e8       	ldi	r30, 0x89	; 137
    2492:	f0 e0       	ldi	r31, 0x00	; 0
    2494:	e4 91       	lpm	r30, Z
    2496:	e0 93 a2 04 	sts	0x04A2, r30	; 0x8004a2 <_ZN7Display6DIGITSE+0x2>
    249a:	eb e8       	ldi	r30, 0x8B	; 139
    249c:	f0 e0       	ldi	r31, 0x00	; 0
    249e:	e4 91       	lpm	r30, Z
    24a0:	e0 93 a3 04 	sts	0x04A3, r30	; 0x8004a3 <_ZN7Display6DIGITSE+0x3>
    24a4:	3f d8       	rcall	.-3970   	; 0x1524 <_ZN7Display11Crossfading12transitionToEPKh.constprop.91>
    24a6:	0f 90       	pop	r0
    24a8:	0f 90       	pop	r0
    24aa:	df 91       	pop	r29
    24ac:	cf 91       	pop	r28
    24ae:	1f 91       	pop	r17
    24b0:	0f 91       	pop	r16
    24b2:	08 95       	ret
    24b4:	12 0f       	add	r17, r18
    24b6:	d7 cf       	rjmp	.-82     	; 0x2466 <_Z18displayTemperaturev+0x86>

000024b8 <_Z33updateTimeCountersFromTimeSourcesv>:
    24b8:	ff 92       	push	r15
    24ba:	0f 93       	push	r16
    24bc:	1f 93       	push	r17
    24be:	cf 93       	push	r28
    24c0:	df 93       	push	r29
    24c2:	cd b7       	in	r28, 0x3d	; 61
    24c4:	de b7       	in	r29, 0x3e	; 62
    24c6:	2a 97       	sbiw	r28, 0x0a	; 10
    24c8:	0f b6       	in	r0, 0x3f	; 63
    24ca:	f8 94       	cli
    24cc:	de bf       	out	0x3e, r29	; 62
    24ce:	0f be       	out	0x3f, r0	; 63
    24d0:	cd bf       	out	0x3d, r28	; 61
    24d2:	00 91 4c 03 	lds	r16, 0x034C	; 0x80034c <t_counter_hours>
    24d6:	10 91 4d 03 	lds	r17, 0x034D	; 0x80034d <t_counter_minutes>
    24da:	80 91 52 03 	lds	r24, 0x0352	; 0x800352 <_ZN7ModulesL8_MODULESE>
    24de:	80 ff       	sbrs	r24, 0
    24e0:	30 c0       	rjmp	.+96     	; 0x2542 <_Z33updateTimeCountersFromTimeSourcesv+0x8a>
    24e2:	42 e0       	ldi	r20, 0x02	; 2
    24e4:	be 01       	movw	r22, r28
    24e6:	6f 5f       	subi	r22, 0xFF	; 255
    24e8:	7f 4f       	sbci	r23, 0xFF	; 255
    24ea:	81 e0       	ldi	r24, 0x01	; 1
    24ec:	3a dc       	rcall	.-1932   	; 0x1d62 <_ZN7Modules6DS3231L13readRegistersEhPhh>
    24ee:	88 23       	and	r24, r24
    24f0:	91 f0       	breq	.+36     	; 0x2516 <_Z33updateTimeCountersFromTimeSourcesv+0x5e>
    24f2:	89 81       	ldd	r24, Y+1	; 0x01
    24f4:	8f 77       	andi	r24, 0x7F	; 127
    24f6:	0e 94 21 03 	call	0x642	; 0x642 <_ZN7Modules6DS3231L8bcdToDecEh>
    24fa:	f8 2e       	mov	r15, r24
    24fc:	8a 81       	ldd	r24, Y+2	; 0x02
    24fe:	8f 73       	andi	r24, 0x3F	; 63
    2500:	0e 94 21 03 	call	0x642	; 0x642 <_ZN7Modules6DS3231L8bcdToDecEh>
    2504:	9b e3       	ldi	r25, 0x3B	; 59
    2506:	9f 15       	cp	r25, r15
    2508:	30 f0       	brcs	.+12     	; 0x2516 <_Z33updateTimeCountersFromTimeSourcesv+0x5e>
    250a:	88 31       	cpi	r24, 0x18	; 24
    250c:	20 f4       	brcc	.+8      	; 0x2516 <_Z33updateTimeCountersFromTimeSourcesv+0x5e>
    250e:	f0 92 4d 03 	sts	0x034D, r15	; 0x80034d <t_counter_minutes>
    2512:	80 93 4c 03 	sts	0x034C, r24	; 0x80034c <t_counter_hours>
    2516:	80 91 4c 03 	lds	r24, 0x034C	; 0x80034c <t_counter_hours>
    251a:	80 13       	cpse	r24, r16
    251c:	4f c0       	rjmp	.+158    	; 0x25bc <_Z33updateTimeCountersFromTimeSourcesv+0x104>
    251e:	81 e0       	ldi	r24, 0x01	; 1
    2520:	90 91 4d 03 	lds	r25, 0x034D	; 0x80034d <t_counter_minutes>
    2524:	91 13       	cpse	r25, r17
    2526:	01 c0       	rjmp	.+2      	; 0x252a <_Z33updateTimeCountersFromTimeSourcesv+0x72>
    2528:	80 e0       	ldi	r24, 0x00	; 0
    252a:	2a 96       	adiw	r28, 0x0a	; 10
    252c:	0f b6       	in	r0, 0x3f	; 63
    252e:	f8 94       	cli
    2530:	de bf       	out	0x3e, r29	; 62
    2532:	0f be       	out	0x3f, r0	; 63
    2534:	cd bf       	out	0x3d, r28	; 61
    2536:	df 91       	pop	r29
    2538:	cf 91       	pop	r28
    253a:	1f 91       	pop	r17
    253c:	0f 91       	pop	r16
    253e:	ff 90       	pop	r15
    2540:	08 95       	ret
    2542:	80 91 59 03 	lds	r24, 0x0359	; 0x800359 <_ZN8Internal22DCF77_Clock_ControllerI13ConfigurationNS_23DCF77_Frequency_ControlEE11Local_ClockE>
    2546:	90 91 5a 03 	lds	r25, 0x035A	; 0x80035a <_ZN8Internal22DCF77_Clock_ControllerI13ConfigurationNS_23DCF77_Frequency_ControlEE11Local_ClockE+0x1>
    254a:	02 97       	sbiw	r24, 0x02	; 2
    254c:	c8 f0       	brcs	.+50     	; 0x2580 <_Z33updateTimeCountersFromTimeSourcesv+0xc8>
    254e:	ce 01       	movw	r24, r28
    2550:	01 96       	adiw	r24, 0x01	; 1
    2552:	0e 94 d4 06 	call	0xda8	; 0xda8 <_ZN11DCF77_Clock17read_current_timeERN5Clock6time_tE>
    2556:	8d 81       	ldd	r24, Y+5	; 0x05
    2558:	28 2f       	mov	r18, r24
    255a:	22 95       	swap	r18
    255c:	2f 70       	andi	r18, 0x0F	; 15
    255e:	9a e0       	ldi	r25, 0x0A	; 10
    2560:	8f 70       	andi	r24, 0x0F	; 15
    2562:	29 9f       	mul	r18, r25
    2564:	80 0d       	add	r24, r0
    2566:	11 24       	eor	r1, r1
    2568:	80 93 4c 03 	sts	0x034C, r24	; 0x80034c <t_counter_hours>
    256c:	8e 81       	ldd	r24, Y+6	; 0x06
    256e:	28 2f       	mov	r18, r24
    2570:	22 95       	swap	r18
    2572:	2f 70       	andi	r18, 0x0F	; 15
    2574:	8f 70       	andi	r24, 0x0F	; 15
    2576:	29 9f       	mul	r18, r25
    2578:	80 0d       	add	r24, r0
    257a:	11 24       	eor	r1, r1
    257c:	80 93 4d 03 	sts	0x034D, r24	; 0x80034d <t_counter_minutes>
    2580:	80 91 73 03 	lds	r24, 0x0373	; 0x800373 <FLAG>
    2584:	81 ff       	sbrs	r24, 1
    2586:	c7 cf       	rjmp	.-114    	; 0x2516 <_Z33updateTimeCountersFromTimeSourcesv+0x5e>
    2588:	80 91 4d 03 	lds	r24, 0x034D	; 0x80034d <t_counter_minutes>
    258c:	8f 5f       	subi	r24, 0xFF	; 255
    258e:	8c 33       	cpi	r24, 0x3C	; 60
    2590:	40 f4       	brcc	.+16     	; 0x25a2 <_Z33updateTimeCountersFromTimeSourcesv+0xea>
    2592:	80 93 4d 03 	sts	0x034D, r24	; 0x80034d <t_counter_minutes>
    2596:	80 91 73 03 	lds	r24, 0x0373	; 0x800373 <FLAG>
    259a:	8d 7f       	andi	r24, 0xFD	; 253
    259c:	80 93 73 03 	sts	0x0373, r24	; 0x800373 <FLAG>
    25a0:	ba cf       	rjmp	.-140    	; 0x2516 <_Z33updateTimeCountersFromTimeSourcesv+0x5e>
    25a2:	80 91 4c 03 	lds	r24, 0x034C	; 0x80034c <t_counter_hours>
    25a6:	10 92 4d 03 	sts	0x034D, r1	; 0x80034d <t_counter_minutes>
    25aa:	8f 5f       	subi	r24, 0xFF	; 255
    25ac:	88 31       	cpi	r24, 0x18	; 24
    25ae:	18 f4       	brcc	.+6      	; 0x25b6 <_Z33updateTimeCountersFromTimeSourcesv+0xfe>
    25b0:	80 93 4c 03 	sts	0x034C, r24	; 0x80034c <t_counter_hours>
    25b4:	f0 cf       	rjmp	.-32     	; 0x2596 <_Z33updateTimeCountersFromTimeSourcesv+0xde>
    25b6:	10 92 4c 03 	sts	0x034C, r1	; 0x80034c <t_counter_hours>
    25ba:	ed cf       	rjmp	.-38     	; 0x2596 <_Z33updateTimeCountersFromTimeSourcesv+0xde>
    25bc:	81 e0       	ldi	r24, 0x01	; 1
    25be:	b5 cf       	rjmp	.-150    	; 0x252a <_Z33updateTimeCountersFromTimeSourcesv+0x72>

000025c0 <_Z10timeLoadFnhh>:
    25c0:	1f 93       	push	r17
    25c2:	cf 93       	push	r28
    25c4:	df 93       	push	r29
    25c6:	d8 2f       	mov	r29, r24
    25c8:	c6 2f       	mov	r28, r22
    25ca:	61 11       	cpse	r22, r1
    25cc:	1a c0       	rjmp	.+52     	; 0x2602 <_Z10timeLoadFnhh+0x42>
    25ce:	74 df       	rcall	.-280    	; 0x24b8 <_Z33updateTimeCountersFromTimeSourcesv>
    25d0:	dd 0f       	add	r29, r29
    25d2:	dd 0f       	add	r29, r29
    25d4:	1a e0       	ldi	r17, 0x0A	; 10
    25d6:	90 91 4c 03 	lds	r25, 0x034C	; 0x80034c <t_counter_hours>
    25da:	80 91 4d 03 	lds	r24, 0x034D	; 0x80034d <t_counter_minutes>
    25de:	2e ef       	ldi	r18, 0xFE	; 254
    25e0:	2c 0f       	add	r18, r28
    25e2:	22 30       	cpi	r18, 0x02	; 2
    25e4:	90 f0       	brcs	.+36     	; 0x260a <_Z10timeLoadFnhh+0x4a>
    25e6:	89 2f       	mov	r24, r25
    25e8:	c1 11       	cpse	r28, r1
    25ea:	13 c0       	rjmp	.+38     	; 0x2612 <_Z10timeLoadFnhh+0x52>
    25ec:	89 2f       	mov	r24, r25
    25ee:	61 2f       	mov	r22, r17
    25f0:	0e 94 c8 27 	call	0x4f90	; 0x4f90 <__udivmodqi4>
    25f4:	68 2f       	mov	r22, r24
    25f6:	8d 2f       	mov	r24, r29
    25f8:	8c 0f       	add	r24, r28
    25fa:	0c d9       	rcall	.-3560   	; 0x1814 <_ZN6Config3setENS_2IDEh>
    25fc:	cf 5f       	subi	r28, 0xFF	; 255
    25fe:	c4 30       	cpi	r28, 0x04	; 4
    2600:	51 f7       	brne	.-44     	; 0x25d6 <_Z10timeLoadFnhh+0x16>
    2602:	df 91       	pop	r29
    2604:	cf 91       	pop	r28
    2606:	1f 91       	pop	r17
    2608:	08 95       	ret
    260a:	c2 30       	cpi	r28, 0x02	; 2
    260c:	11 f4       	brne	.+4      	; 0x2612 <_Z10timeLoadFnhh+0x52>
    260e:	98 2f       	mov	r25, r24
    2610:	ed cf       	rjmp	.-38     	; 0x25ec <_Z10timeLoadFnhh+0x2c>
    2612:	61 2f       	mov	r22, r17
    2614:	0e 94 c8 27 	call	0x4f90	; 0x4f90 <__udivmodqi4>
    2618:	89 2f       	mov	r24, r25
    261a:	ec cf       	rjmp	.-40     	; 0x25f4 <_Z10timeLoadFnhh+0x34>

0000261c <_ZN7ModulesL15_DS3231_PresentEv>:
    261c:	88 e6       	ldi	r24, 0x68	; 104
    261e:	80 93 c6 04 	sts	0x04C6, r24	; 0x8004c6 <Wire>
    2622:	10 92 e7 04 	sts	0x04E7, r1	; 0x8004e7 <Wire+0x21>
    2626:	4b da       	rcall	.-2922   	; 0x1abe <_ZN7TwoWire15endTransmissionEh.constprop.83>
    2628:	91 e0       	ldi	r25, 0x01	; 1
    262a:	81 11       	cpse	r24, r1
    262c:	90 e0       	ldi	r25, 0x00	; 0
    262e:	89 2f       	mov	r24, r25
    2630:	08 95       	ret

00002632 <_stop>:
    2632:	85 ed       	ldi	r24, 0xD5	; 213
    2634:	80 93 bc 00 	sts	0x00BC, r24	; 0x8000bc <__TEXT_REGION_LENGTH__+0x7e00bc>
    2638:	80 91 9c 04 	lds	r24, 0x049C	; 0x80049c <_timeout_us>
    263c:	90 91 9d 04 	lds	r25, 0x049D	; 0x80049d <_timeout_us+0x1>
    2640:	a0 91 9e 04 	lds	r26, 0x049E	; 0x80049e <_timeout_us+0x2>
    2644:	b0 91 9f 04 	lds	r27, 0x049F	; 0x80049f <_timeout_us+0x3>
    2648:	89 2b       	or	r24, r25
    264a:	8a 2b       	or	r24, r26
    264c:	8b 2b       	or	r24, r27
    264e:	c9 f0       	breq	.+50     	; 0x2682 <_stop+0x50>
    2650:	80 91 9c 04 	lds	r24, 0x049C	; 0x80049c <_timeout_us>
    2654:	90 91 9d 04 	lds	r25, 0x049D	; 0x80049d <_timeout_us+0x1>
    2658:	a0 91 9e 04 	lds	r26, 0x049E	; 0x80049e <_timeout_us+0x2>
    265c:	b0 91 9f 04 	lds	r27, 0x049F	; 0x80049f <_timeout_us+0x3>
    2660:	07 96       	adiw	r24, 0x07	; 7
    2662:	a1 1d       	adc	r26, r1
    2664:	b1 1d       	adc	r27, r1
    2666:	23 e0       	ldi	r18, 0x03	; 3
    2668:	b6 95       	lsr	r27
    266a:	a7 95       	ror	r26
    266c:	97 95       	ror	r25
    266e:	87 95       	ror	r24
    2670:	2a 95       	dec	r18
    2672:	d1 f7       	brne	.-12     	; 0x2668 <_stop+0x36>
    2674:	20 91 bc 00 	lds	r18, 0x00BC	; 0x8000bc <__TEXT_REGION_LENGTH__+0x7e00bc>
    2678:	24 fd       	sbrc	r18, 4
    267a:	07 c0       	rjmp	.+14     	; 0x268a <_stop+0x58>
    267c:	10 92 9b 04 	sts	0x049B, r1	; 0x80049b <_state>
    2680:	08 95       	ret
    2682:	8f ef       	ldi	r24, 0xFF	; 255
    2684:	9f ef       	ldi	r25, 0xFF	; 255
    2686:	dc 01       	movw	r26, r24
    2688:	f5 cf       	rjmp	.-22     	; 0x2674 <_stop+0x42>
    268a:	00 97       	sbiw	r24, 0x00	; 0
    268c:	a1 05       	cpc	r26, r1
    268e:	b1 05       	cpc	r27, r1
    2690:	11 f4       	brne	.+4      	; 0x2696 <_stop+0x64>
    2692:	0c 94 c5 02 	jmp	0x58a	; 0x58a <_twi_handle_timeout>
    2696:	2a e2       	ldi	r18, 0x2A	; 42
    2698:	2a 95       	dec	r18
    269a:	f1 f7       	brne	.-4      	; 0x2698 <_stop+0x66>
    269c:	00 c0       	rjmp	.+0      	; 0x269e <_stop+0x6c>
    269e:	40 91 9c 04 	lds	r20, 0x049C	; 0x80049c <_timeout_us>
    26a2:	50 91 9d 04 	lds	r21, 0x049D	; 0x80049d <_timeout_us+0x1>
    26a6:	60 91 9e 04 	lds	r22, 0x049E	; 0x80049e <_timeout_us+0x2>
    26aa:	70 91 9f 04 	lds	r23, 0x049F	; 0x80049f <_timeout_us+0x3>
    26ae:	45 2b       	or	r20, r21
    26b0:	46 2b       	or	r20, r22
    26b2:	47 2b       	or	r20, r23
    26b4:	f9 f2       	breq	.-66     	; 0x2674 <_stop+0x42>
    26b6:	01 97       	sbiw	r24, 0x01	; 1
    26b8:	a1 09       	sbc	r26, r1
    26ba:	b1 09       	sbc	r27, r1
    26bc:	db cf       	rjmp	.-74     	; 0x2674 <_stop+0x42>

000026be <_Z20onLeftButtonReleasedv>:
    26be:	80 91 a4 04 	lds	r24, 0x04A4	; 0x8004a4 <MODE>
    26c2:	81 ff       	sbrs	r24, 1
    26c4:	09 c0       	rjmp	.+18     	; 0x26d8 <_Z20onLeftButtonReleasedv+0x1a>
    26c6:	80 91 46 03 	lds	r24, 0x0346	; 0x800346 <_ZL14selected_digit>
    26ca:	90 e0       	ldi	r25, 0x00	; 0
    26cc:	01 96       	adiw	r24, 0x01	; 1
    26ce:	83 70       	andi	r24, 0x03	; 3
    26d0:	99 27       	eor	r25, r25
    26d2:	80 93 46 03 	sts	0x0346, r24	; 0x800346 <_ZL14selected_digit>
    26d6:	08 95       	ret
    26d8:	80 91 44 01 	lds	r24, 0x0144	; 0x800144 <_ZN6ConfigL7entriesE+0x34>
    26dc:	81 11       	cpse	r24, r1
    26de:	02 c0       	rjmp	.+4      	; 0x26e4 <_Z20onLeftButtonReleasedv+0x26>
    26e0:	82 e0       	ldi	r24, 0x02	; 2
    26e2:	1f c8       	rjmp	.-4034   	; 0x1722 <_ZN7Display19incrementBrightnessEa>
    26e4:	08 95       	ret

000026e6 <_ZN6Config4loadENS_2IDE>:
    26e6:	cf 93       	push	r28
    26e8:	df 93       	push	r29
    26ea:	28 2f       	mov	r18, r24
    26ec:	30 e0       	ldi	r19, 0x00	; 0
    26ee:	9d e0       	ldi	r25, 0x0D	; 13
    26f0:	89 9f       	mul	r24, r25
    26f2:	e0 01       	movw	r28, r0
    26f4:	11 24       	eor	r1, r1
    26f6:	c0 5f       	subi	r28, 0xF0	; 240
    26f8:	de 4f       	sbci	r29, 0xFE	; 254
    26fa:	eb 85       	ldd	r30, Y+11	; 0x0b
    26fc:	fc 85       	ldd	r31, Y+12	; 0x0c
    26fe:	30 97       	sbiw	r30, 0x00	; 0
    2700:	39 f0       	breq	.+14     	; 0x2710 <_ZN6Config4loadENS_2IDE+0x2a>
    2702:	68 2f       	mov	r22, r24
    2704:	63 70       	andi	r22, 0x03	; 3
    2706:	86 95       	lsr	r24
    2708:	86 95       	lsr	r24
    270a:	df 91       	pop	r29
    270c:	cf 91       	pop	r28
    270e:	09 94       	ijmp
    2710:	8e 81       	ldd	r24, Y+6	; 0x06
    2712:	88 23       	and	r24, r24
    2714:	51 f0       	breq	.+20     	; 0x272a <_ZN6Config4loadENS_2IDE+0x44>
    2716:	c9 01       	movw	r24, r18
    2718:	0e 94 b2 27 	call	0x4f64	; 0x4f64 <eeprom_read_byte>
    271c:	99 81       	ldd	r25, Y+1	; 0x01
    271e:	89 17       	cp	r24, r25
    2720:	20 f0       	brcs	.+8      	; 0x272a <_ZN6Config4loadENS_2IDE+0x44>
    2722:	9a 81       	ldd	r25, Y+2	; 0x02
    2724:	98 17       	cp	r25, r24
    2726:	08 f0       	brcs	.+2      	; 0x272a <_ZN6Config4loadENS_2IDE+0x44>
    2728:	88 83       	st	Y, r24
    272a:	df 91       	pop	r29
    272c:	cf 91       	pop	r28
    272e:	08 95       	ret

00002730 <_ZN6Config11loadForPageEh>:
    2730:	cf 93       	push	r28
    2732:	df 93       	push	r29
    2734:	d8 2f       	mov	r29, r24
    2736:	dd 0f       	add	r29, r29
    2738:	dd 0f       	add	r29, r29
    273a:	c0 e0       	ldi	r28, 0x00	; 0
    273c:	8d 2f       	mov	r24, r29
    273e:	8c 0f       	add	r24, r28
    2740:	d2 df       	rcall	.-92     	; 0x26e6 <_ZN6Config4loadENS_2IDE>
    2742:	cf 5f       	subi	r28, 0xFF	; 255
    2744:	c4 30       	cpi	r28, 0x04	; 4
    2746:	d1 f7       	brne	.-12     	; 0x273c <_ZN6Config11loadForPageEh+0xc>
    2748:	df 91       	pop	r29
    274a:	cf 91       	pop	r28
    274c:	08 95       	ret

0000274e <_ZN6Config4saveENS_2IDE>:
    274e:	1f 93       	push	r17
    2750:	cf 93       	push	r28
